(lp0
ccopy_reg
_reconstructor
p1
(cgames
Game
p2
c__builtin__
tuple
p3
((dp4
S'green left small'
p5
(lp6
I0
aI0
aI0
aI0
aI0
aI0
aI1
aI0
aI1
aI0
aI0
aI0
aI0
aI1
asS'desk red left'
p7
(lp8
I0
aI0
aI1
aI0
aI0
aI1
aI0
aI0
aI1
aI0
aI0
aI0
aI0
aI0
asS'chair grey back large'
p9
(lp10
I1
aI0
aI0
aI0
aI0
aI0
aI0
aI1
aI0
aI0
aI0
aI1
aI1
aI0
asS'fan blue front large'
p11
(lp12
I0
aI0
aI0
aI1
aI1
aI0
aI0
aI0
aI0
aI0
aI1
aI0
aI1
aI0
asS'fan right small'
p13
(lp14
I0
aI0
aI0
aI1
aI0
aI0
aI0
aI0
aI0
aI1
aI0
aI0
aI0
aI1
asS'green small'
p15
(lp16
I0
aI0
aI0
aI0
aI0
aI0
aI1
aI0
aI0
aI0
aI0
aI0
aI0
aI1
asS'chair blue front'
p17
(lp18
I1
aI0
aI0
aI0
aI1
aI0
aI0
aI0
aI0
aI0
aI1
aI0
aI0
aI0
asS'chair back small'
p19
(lp20
I1
aI0
aI0
aI0
aI0
aI0
aI0
aI0
aI0
aI0
aI0
aI1
aI0
aI1
asS'sofa blue back large'
p21
(lp22
I0
aI1
aI0
aI0
aI1
aI0
aI0
aI0
aI0
aI0
aI0
aI1
aI1
aI0
asS'red left small'
p23
(lp24
I0
aI0
aI0
aI0
aI0
aI1
aI0
aI0
aI1
aI0
aI0
aI0
aI0
aI1
asS'fan red back small'
p25
(lp26
I0
aI0
aI0
aI1
aI0
aI1
aI0
aI0
aI0
aI0
aI0
aI1
aI0
aI1
asS'chair'
p27
(lp28
I1
aI0
aI0
aI0
aI0
aI0
aI0
aI0
aI0
aI0
aI0
aI0
aI0
aI0
asS'sofa green left large'
p29
(lp30
I0
aI1
aI0
aI0
aI0
aI0
aI1
aI0
aI1
aI0
aI0
aI0
aI1
aI0
asS'chair green left'
p31
(lp32
I1
aI0
aI0
aI0
aI0
aI0
aI1
aI0
aI1
aI0
aI0
aI0
aI0
aI0
asS'red right'
p33
(lp34
I0
aI0
aI0
aI0
aI0
aI1
aI0
aI0
aI0
aI1
aI0
aI0
aI0
aI0
asS'sofa blue right small'
p35
(lp36
I0
aI1
aI0
aI0
aI1
aI0
aI0
aI0
aI0
aI1
aI0
aI0
aI0
aI1
asS'fan blue back small'
p37
(lp38
I0
aI0
aI0
aI1
aI1
aI0
aI0
aI0
aI0
aI0
aI0
aI1
aI0
aI1
asS'desk blue right large'
p39
(lp40
I0
aI0
aI1
aI0
aI1
aI0
aI0
aI0
aI0
aI1
aI0
aI0
aI1
aI0
asS'green left'
p41
(lp42
I0
aI0
aI0
aI0
aI0
aI0
aI1
aI0
aI1
aI0
aI0
aI0
aI0
aI0
asS'fan red large'
p43
(lp44
I0
aI0
aI0
aI1
aI0
aI1
aI0
aI0
aI0
aI0
aI0
aI0
aI1
aI0
asS'fan small'
p45
(lp46
I0
aI0
aI0
aI1
aI0
aI0
aI0
aI0
aI0
aI0
aI0
aI0
aI0
aI1
asS'sofa blue front'
p47
(lp48
I0
aI1
aI0
aI0
aI1
aI0
aI0
aI0
aI0
aI0
aI1
aI0
aI0
aI0
asS'sofa red'
p49
(lp50
I0
aI1
aI0
aI0
aI0
aI1
aI0
aI0
aI0
aI0
aI0
aI0
aI0
aI0
asS'sofa green'
p51
(lp52
I0
aI1
aI0
aI0
aI0
aI0
aI1
aI0
aI0
aI0
aI0
aI0
aI0
aI0
asS'desk blue front large'
p53
(lp54
I0
aI0
aI1
aI0
aI1
aI0
aI0
aI0
aI0
aI0
aI1
aI0
aI1
aI0
asS'fan blue left large'
p55
(lp56
I0
aI0
aI0
aI1
aI1
aI0
aI0
aI0
aI1
aI0
aI0
aI0
aI1
aI0
asS'desk front'
p57
(lp58
I0
aI0
aI1
aI0
aI0
aI0
aI0
aI0
aI0
aI0
aI1
aI0
aI0
aI0
asS'chair green front small'
p59
(lp60
I1
aI0
aI0
aI0
aI0
aI0
aI1
aI0
aI0
aI0
aI1
aI0
aI0
aI1
asS'fan large'
p61
(lp62
I0
aI0
aI0
aI1
aI0
aI0
aI0
aI0
aI0
aI0
aI0
aI0
aI1
aI0
asS'grey large'
p63
(lp64
I0
aI0
aI0
aI0
aI0
aI0
aI0
aI1
aI0
aI0
aI0
aI0
aI1
aI0
asS'chair blue'
p65
(lp66
I1
aI0
aI0
aI0
aI1
aI0
aI0
aI0
aI0
aI0
aI0
aI0
aI0
aI0
asS'sofa front large'
p67
(lp68
I0
aI1
aI0
aI0
aI0
aI0
aI0
aI0
aI0
aI0
aI1
aI0
aI1
aI0
asS'fan red front large'
p69
(lp70
I0
aI0
aI0
aI1
aI0
aI1
aI0
aI0
aI0
aI0
aI1
aI0
aI1
aI0
asS'fan blue'
p71
(lp72
I0
aI0
aI0
aI1
aI1
aI0
aI0
aI0
aI0
aI0
aI0
aI0
aI0
aI0
asS'fan'
p73
(lp74
I0
aI0
aI0
aI1
aI0
aI0
aI0
aI0
aI0
aI0
aI0
aI0
aI0
aI0
asS'desk red back large'
p75
(lp76
I0
aI0
aI1
aI0
aI0
aI1
aI0
aI0
aI0
aI0
aI0
aI1
aI1
aI0
asS'desk blue left'
p77
(lp78
I0
aI0
aI1
aI0
aI1
aI0
aI0
aI0
aI1
aI0
aI0
aI0
aI0
aI0
asS'fan grey right large'
p79
(lp80
I0
aI0
aI0
aI1
aI0
aI0
aI0
aI1
aI0
aI1
aI0
aI0
aI1
aI0
asS'chair green back small'
p81
(lp82
I1
aI0
aI0
aI0
aI0
aI0
aI1
aI0
aI0
aI0
aI0
aI1
aI0
aI1
asS'sofa right small'
p83
(lp84
I0
aI1
aI0
aI0
aI0
aI0
aI0
aI0
aI0
aI1
aI0
aI0
aI0
aI1
asS'chair grey front'
p85
(lp86
I1
aI0
aI0
aI0
aI0
aI0
aI0
aI1
aI0
aI0
aI1
aI0
aI0
aI0
asS'chair grey right small'
p87
(lp88
I1
aI0
aI0
aI0
aI0
aI0
aI0
aI1
aI0
aI1
aI0
aI0
aI0
aI1
asS'grey right large'
p89
(lp90
I0
aI0
aI0
aI0
aI0
aI0
aI0
aI1
aI0
aI1
aI0
aI0
aI1
aI0
asS'chair grey right'
p91
(lp92
I1
aI0
aI0
aI0
aI0
aI0
aI0
aI1
aI0
aI1
aI0
aI0
aI0
aI0
asS'sofa grey left'
p93
(lp94
I0
aI1
aI0
aI0
aI0
aI0
aI0
aI1
aI1
aI0
aI0
aI0
aI0
aI0
asS'large'
p95
(lp96
I0
aI0
aI0
aI0
aI0
aI0
aI0
aI0
aI0
aI0
aI0
aI0
aI1
aI0
asS'sofa red right large'
p97
(lp98
I0
aI1
aI0
aI0
aI0
aI1
aI0
aI0
aI0
aI1
aI0
aI0
aI1
aI0
asS'desk grey right small'
p99
(lp100
I0
aI0
aI1
aI0
aI0
aI0
aI0
aI1
aI0
aI1
aI0
aI0
aI0
aI1
asS'small'
p101
(lp102
I0
aI0
aI0
aI0
aI0
aI0
aI0
aI0
aI0
aI0
aI0
aI0
aI0
aI1
asS'left small'
p103
(lp104
I0
aI0
aI0
aI0
aI0
aI0
aI0
aI0
aI1
aI0
aI0
aI0
aI0
aI1
asS'chair red left small'
p105
(lp106
I1
aI0
aI0
aI0
aI0
aI1
aI0
aI0
aI1
aI0
aI0
aI0
aI0
aI1
asS'sofa back large'
p107
(lp108
I0
aI1
aI0
aI0
aI0
aI0
aI0
aI0
aI0
aI0
aI0
aI1
aI1
aI0
asS'chair red back large'
p109
(lp110
I1
aI0
aI0
aI0
aI0
aI1
aI0
aI0
aI0
aI0
aI0
aI1
aI1
aI0
asS'sofa red small'
p111
(lp112
I0
aI1
aI0
aI0
aI0
aI1
aI0
aI0
aI0
aI0
aI0
aI0
aI0
aI1
asS'red left'
p113
(lp114
I0
aI0
aI0
aI0
aI0
aI1
aI0
aI0
aI1
aI0
aI0
aI0
aI0
aI0
asS'chair right large'
p115
(lp116
I1
aI0
aI0
aI0
aI0
aI0
aI0
aI0
aI0
aI1
aI0
aI0
aI1
aI0
asS'chair back'
p117
(lp118
I1
aI0
aI0
aI0
aI0
aI0
aI0
aI0
aI0
aI0
aI0
aI1
aI0
aI0
asS'grey back small'
p119
(lp120
I0
aI0
aI0
aI0
aI0
aI0
aI0
aI1
aI0
aI0
aI0
aI1
aI0
aI1
asS'sofa right'
p121
(lp122
I0
aI1
aI0
aI0
aI0
aI0
aI0
aI0
aI0
aI1
aI0
aI0
aI0
aI0
asS'desk red front small'
p123
(lp124
I0
aI0
aI1
aI0
aI0
aI1
aI0
aI0
aI0
aI0
aI1
aI0
aI0
aI1
asS'sofa green small'
p125
(lp126
I0
aI1
aI0
aI0
aI0
aI0
aI1
aI0
aI0
aI0
aI0
aI0
aI0
aI1
asS'blue'
p127
(lp128
I0
aI0
aI0
aI0
aI1
aI0
aI0
aI0
aI0
aI0
aI0
aI0
aI0
aI0
asS'desk green left large'
p129
(lp130
I0
aI0
aI1
aI0
aI0
aI0
aI1
aI0
aI1
aI0
aI0
aI0
aI1
aI0
asS'chair left large'
p131
(lp132
I1
aI0
aI0
aI0
aI0
aI0
aI0
aI0
aI1
aI0
aI0
aI0
aI1
aI0
asS'sofa red left large'
p133
(lp134
I0
aI1
aI0
aI0
aI0
aI1
aI0
aI0
aI1
aI0
aI0
aI0
aI1
aI0
asS'chair green front large'
p135
(lp136
I1
aI0
aI0
aI0
aI0
aI0
aI1
aI0
aI0
aI0
aI1
aI0
aI1
aI0
asS'desk grey left large'
p137
(lp138
I0
aI0
aI1
aI0
aI0
aI0
aI0
aI1
aI1
aI0
aI0
aI0
aI1
aI0
asS'fan green left small'
p139
(lp140
I0
aI0
aI0
aI1
aI0
aI0
aI1
aI0
aI1
aI0
aI0
aI0
aI0
aI1
asS'fan green front large'
p141
(lp142
I0
aI0
aI0
aI1
aI0
aI0
aI1
aI0
aI0
aI0
aI1
aI0
aI1
aI0
asS'desk red large'
p143
(lp144
I0
aI0
aI1
aI0
aI0
aI1
aI0
aI0
aI0
aI0
aI0
aI0
aI1
aI0
asS'chair left'
p145
(lp146
I1
aI0
aI0
aI0
aI0
aI0
aI0
aI0
aI1
aI0
aI0
aI0
aI0
aI0
asS'blue back small'
p147
(lp148
I0
aI0
aI0
aI0
aI1
aI0
aI0
aI0
aI0
aI0
aI0
aI1
aI0
aI1
asS'desk left large'
p149
(lp150
I0
aI0
aI1
aI0
aI0
aI0
aI0
aI0
aI1
aI0
aI0
aI0
aI1
aI0
asS'desk grey left small'
p151
(lp152
I0
aI0
aI1
aI0
aI0
aI0
aI0
aI1
aI1
aI0
aI0
aI0
aI0
aI1
asS'chair grey'
p153
(lp154
I1
aI0
aI0
aI0
aI0
aI0
aI0
aI1
aI0
aI0
aI0
aI0
aI0
aI0
asS'fan green left'
p155
(lp156
I0
aI0
aI0
aI1
aI0
aI0
aI1
aI0
aI1
aI0
aI0
aI0
aI0
aI0
asS'desk blue front small'
p157
(lp158
I0
aI0
aI1
aI0
aI1
aI0
aI0
aI0
aI0
aI0
aI1
aI0
aI0
aI1
asS'fan blue large'
p159
(lp160
I0
aI0
aI0
aI1
aI1
aI0
aI0
aI0
aI0
aI0
aI0
aI0
aI1
aI0
asS'desk red back small'
p161
(lp162
I0
aI0
aI1
aI0
aI0
aI1
aI0
aI0
aI0
aI0
aI0
aI1
aI0
aI1
asS'sofa left small'
p163
(lp164
I0
aI1
aI0
aI0
aI0
aI0
aI0
aI0
aI1
aI0
aI0
aI0
aI0
aI1
asS'desk grey back'
p165
(lp166
I0
aI0
aI1
aI0
aI0
aI0
aI0
aI1
aI0
aI0
aI0
aI1
aI0
aI0
asS'sofa red left small'
p167
(lp168
I0
aI1
aI0
aI0
aI0
aI1
aI0
aI0
aI1
aI0
aI0
aI0
aI0
aI1
asS'sofa blue small'
p169
(lp170
I0
aI1
aI0
aI0
aI1
aI0
aI0
aI0
aI0
aI0
aI0
aI0
aI0
aI1
asS'sofa green left small'
p171
(lp172
I0
aI1
aI0
aI0
aI0
aI0
aI1
aI0
aI1
aI0
aI0
aI0
aI0
aI1
asS'left large'
p173
(lp174
I0
aI0
aI0
aI0
aI0
aI0
aI0
aI0
aI1
aI0
aI0
aI0
aI1
aI0
asS'fan grey front small'
p175
(lp176
I0
aI0
aI0
aI1
aI0
aI0
aI0
aI1
aI0
aI0
aI1
aI0
aI0
aI1
asS'sofa blue large'
p177
(lp178
I0
aI1
aI0
aI0
aI1
aI0
aI0
aI0
aI0
aI0
aI0
aI0
aI1
aI0
asS'red small'
p179
(lp180
I0
aI0
aI0
aI0
aI0
aI1
aI0
aI0
aI0
aI0
aI0
aI0
aI0
aI1
asS'fan grey right'
p181
(lp182
I0
aI0
aI0
aI1
aI0
aI0
aI0
aI1
aI0
aI1
aI0
aI0
aI0
aI0
asS'chair green'
p183
(lp184
I1
aI0
aI0
aI0
aI0
aI0
aI1
aI0
aI0
aI0
aI0
aI0
aI0
aI0
asS'fan grey left large'
p185
(lp186
I0
aI0
aI0
aI1
aI0
aI0
aI0
aI1
aI1
aI0
aI0
aI0
aI1
aI0
asS'chair red right large'
p187
(lp188
I1
aI0
aI0
aI0
aI0
aI1
aI0
aI0
aI0
aI1
aI0
aI0
aI1
aI0
asS'desk green right'
p189
(lp190
I0
aI0
aI1
aI0
aI0
aI0
aI1
aI0
aI0
aI1
aI0
aI0
aI0
aI0
asS'sofa grey back large'
p191
(lp192
I0
aI1
aI0
aI0
aI0
aI0
aI0
aI1
aI0
aI0
aI0
aI1
aI1
aI0
asS'desk front large'
p193
(lp194
I0
aI0
aI1
aI0
aI0
aI0
aI0
aI0
aI0
aI0
aI1
aI0
aI1
aI0
asS'desk right large'
p195
(lp196
I0
aI0
aI1
aI0
aI0
aI0
aI0
aI0
aI0
aI1
aI0
aI0
aI1
aI0
asS'chair green large'
p197
(lp198
I1
aI0
aI0
aI0
aI0
aI0
aI1
aI0
aI0
aI0
aI0
aI0
aI1
aI0
asS'chair green left large'
p199
(lp200
I1
aI0
aI0
aI0
aI0
aI0
aI1
aI0
aI1
aI0
aI0
aI0
aI1
aI0
asS'chair grey front large'
p201
(lp202
I1
aI0
aI0
aI0
aI0
aI0
aI0
aI1
aI0
aI0
aI1
aI0
aI1
aI0
asS'desk back small'
p203
(lp204
I0
aI0
aI1
aI0
aI0
aI0
aI0
aI0
aI0
aI0
aI0
aI1
aI0
aI1
asS'fan grey back large'
p205
(lp206
I0
aI0
aI0
aI1
aI0
aI0
aI0
aI1
aI0
aI0
aI0
aI1
aI1
aI0
asS'desk blue back'
p207
(lp208
I0
aI0
aI1
aI0
aI1
aI0
aI0
aI0
aI0
aI0
aI0
aI1
aI0
aI0
asS'desk back'
p209
(lp210
I0
aI0
aI1
aI0
aI0
aI0
aI0
aI0
aI0
aI0
aI0
aI1
aI0
aI0
asS'blue front large'
p211
(lp212
I0
aI0
aI0
aI0
aI1
aI0
aI0
aI0
aI0
aI0
aI1
aI0
aI1
aI0
asS'desk blue left large'
p213
(lp214
I0
aI0
aI1
aI0
aI1
aI0
aI0
aI0
aI1
aI0
aI0
aI0
aI1
aI0
asS'desk blue right small'
p215
(lp216
I0
aI0
aI1
aI0
aI1
aI0
aI0
aI0
aI0
aI1
aI0
aI0
aI0
aI1
asS'fan green back large'
p217
(lp218
I0
aI0
aI0
aI1
aI0
aI0
aI1
aI0
aI0
aI0
aI0
aI1
aI1
aI0
asS'chair red right'
p219
(lp220
I1
aI0
aI0
aI0
aI0
aI1
aI0
aI0
aI0
aI1
aI0
aI0
aI0
aI0
asS'chair green right'
p221
(lp222
I1
aI0
aI0
aI0
aI0
aI0
aI1
aI0
aI0
aI1
aI0
aI0
aI0
aI0
asS'desk blue'
p223
(lp224
I0
aI0
aI1
aI0
aI1
aI0
aI0
aI0
aI0
aI0
aI0
aI0
aI0
aI0
asS'sofa grey left large'
p225
(lp226
I0
aI1
aI0
aI0
aI0
aI0
aI0
aI1
aI1
aI0
aI0
aI0
aI1
aI0
asS'fan red small'
p227
(lp228
I0
aI0
aI0
aI1
aI0
aI1
aI0
aI0
aI0
aI0
aI0
aI0
aI0
aI1
asS'chair red back small'
p229
(lp230
I1
aI0
aI0
aI0
aI0
aI1
aI0
aI0
aI0
aI0
aI0
aI1
aI0
aI1
asS'desk blue back small'
p231
(lp232
I0
aI0
aI1
aI0
aI1
aI0
aI0
aI0
aI0
aI0
aI0
aI1
aI0
aI1
asS'sofa small'
p233
(lp234
I0
aI1
aI0
aI0
aI0
aI0
aI0
aI0
aI0
aI0
aI0
aI0
aI0
aI1
asS'sofa red back small'
p235
(lp236
I0
aI1
aI0
aI0
aI0
aI1
aI0
aI0
aI0
aI0
aI0
aI1
aI0
aI1
asS'chair green small'
p237
(lp238
I1
aI0
aI0
aI0
aI0
aI0
aI1
aI0
aI0
aI0
aI0
aI0
aI0
aI1
asS'blue small'
p239
(lp240
I0
aI0
aI0
aI0
aI1
aI0
aI0
aI0
aI0
aI0
aI0
aI0
aI0
aI1
asS'fan left small'
p241
(lp242
I0
aI0
aI0
aI1
aI0
aI0
aI0
aI0
aI1
aI0
aI0
aI0
aI0
aI1
asS'chair front large'
p243
(lp244
I1
aI0
aI0
aI0
aI0
aI0
aI0
aI0
aI0
aI0
aI1
aI0
aI1
aI0
asS'green right small'
p245
(lp246
I0
aI0
aI0
aI0
aI0
aI0
aI1
aI0
aI0
aI1
aI0
aI0
aI0
aI1
asS'desk red left small'
p247
(lp248
I0
aI0
aI1
aI0
aI0
aI1
aI0
aI0
aI1
aI0
aI0
aI0
aI0
aI1
asS'chair blue left large'
p249
(lp250
I1
aI0
aI0
aI0
aI1
aI0
aI0
aI0
aI1
aI0
aI0
aI0
aI1
aI0
asS'sofa blue back'
p251
(lp252
I0
aI1
aI0
aI0
aI1
aI0
aI0
aI0
aI0
aI0
aI0
aI1
aI0
aI0
asS'chair blue right small'
p253
(lp254
I1
aI0
aI0
aI0
aI1
aI0
aI0
aI0
aI0
aI1
aI0
aI0
aI0
aI1
asS'fan green back'
p255
(lp256
I0
aI0
aI0
aI1
aI0
aI0
aI1
aI0
aI0
aI0
aI0
aI1
aI0
aI0
asS'blue left large'
p257
(lp258
I0
aI0
aI0
aI0
aI1
aI0
aI0
aI0
aI1
aI0
aI0
aI0
aI1
aI0
asS'sofa grey back'
p259
(lp260
I0
aI1
aI0
aI0
aI0
aI0
aI0
aI1
aI0
aI0
aI0
aI1
aI0
aI0
asS'blue large'
p261
(lp262
I0
aI0
aI0
aI0
aI1
aI0
aI0
aI0
aI0
aI0
aI0
aI0
aI1
aI0
asS'chair grey left small'
p263
(lp264
I1
aI0
aI0
aI0
aI0
aI0
aI0
aI1
aI1
aI0
aI0
aI0
aI0
aI1
asS'desk grey front'
p265
(lp266
I0
aI0
aI1
aI0
aI0
aI0
aI0
aI1
aI0
aI0
aI1
aI0
aI0
aI0
asS'sofa green back small'
p267
(lp268
I0
aI1
aI0
aI0
aI0
aI0
aI1
aI0
aI0
aI0
aI0
aI1
aI0
aI1
asS'chair red large'
p269
(lp270
I1
aI0
aI0
aI0
aI0
aI1
aI0
aI0
aI0
aI0
aI0
aI0
aI1
aI0
asS'red back small'
p271
(lp272
I0
aI0
aI0
aI0
aI0
aI1
aI0
aI0
aI0
aI0
aI0
aI1
aI0
aI1
asS'chair green right large'
p273
(lp274
I1
aI0
aI0
aI0
aI0
aI0
aI1
aI0
aI0
aI1
aI0
aI0
aI1
aI0
asS'fan green'
p275
(lp276
I0
aI0
aI0
aI1
aI0
aI0
aI1
aI0
aI0
aI0
aI0
aI0
aI0
aI0
asS'red back'
p277
(lp278
I0
aI0
aI0
aI0
aI0
aI1
aI0
aI0
aI0
aI0
aI0
aI1
aI0
aI0
asS'right large'
p279
(lp280
I0
aI0
aI0
aI0
aI0
aI0
aI0
aI0
aI0
aI1
aI0
aI0
aI1
aI0
asS'fan grey front large'
p281
(lp282
I0
aI0
aI0
aI1
aI0
aI0
aI0
aI1
aI0
aI0
aI1
aI0
aI1
aI0
asS'chair back large'
p283
(lp284
I1
aI0
aI0
aI0
aI0
aI0
aI0
aI0
aI0
aI0
aI0
aI1
aI1
aI0
asS'desk red'
p285
(lp286
I0
aI0
aI1
aI0
aI0
aI1
aI0
aI0
aI0
aI0
aI0
aI0
aI0
aI0
asS'blue right large'
p287
(lp288
I0
aI0
aI0
aI0
aI1
aI0
aI0
aI0
aI0
aI1
aI0
aI0
aI1
aI0
asS'sofa grey'
p289
(lp290
I0
aI1
aI0
aI0
aI0
aI0
aI0
aI1
aI0
aI0
aI0
aI0
aI0
aI0
asS'chair green front'
p291
(lp292
I1
aI0
aI0
aI0
aI0
aI0
aI1
aI0
aI0
aI0
aI1
aI0
aI0
aI0
asS'sofa back'
p293
(lp294
I0
aI1
aI0
aI0
aI0
aI0
aI0
aI0
aI0
aI0
aI0
aI1
aI0
aI0
asS'chair right small'
p295
(lp296
I1
aI0
aI0
aI0
aI0
aI0
aI0
aI0
aI0
aI1
aI0
aI0
aI0
aI1
asS'sofa green left'
p297
(lp298
I0
aI1
aI0
aI0
aI0
aI0
aI1
aI0
aI1
aI0
aI0
aI0
aI0
aI0
asS'sofa red left'
p299
(lp300
I0
aI1
aI0
aI0
aI0
aI1
aI0
aI0
aI1
aI0
aI0
aI0
aI0
aI0
asS'red left large'
p301
(lp302
I0
aI0
aI0
aI0
aI0
aI1
aI0
aI0
aI1
aI0
aI0
aI0
aI1
aI0
asS'front small'
p303
(lp304
I0
aI0
aI0
aI0
aI0
aI0
aI0
aI0
aI0
aI0
aI1
aI0
aI0
aI1
asS'grey small'
p305
(lp306
I0
aI0
aI0
aI0
aI0
aI0
aI0
aI1
aI0
aI0
aI0
aI0
aI0
aI1
asS'chair grey left'
p307
(lp308
I1
aI0
aI0
aI0
aI0
aI0
aI0
aI1
aI1
aI0
aI0
aI0
aI0
aI0
asS'fan right large'
p309
(lp310
I0
aI0
aI0
aI1
aI0
aI0
aI0
aI0
aI0
aI1
aI0
aI0
aI1
aI0
asS'chair green back'
p311
(lp312
I1
aI0
aI0
aI0
aI0
aI0
aI1
aI0
aI0
aI0
aI0
aI1
aI0
aI0
asS'desk green'
p313
(lp314
I0
aI0
aI1
aI0
aI0
aI0
aI1
aI0
aI0
aI0
aI0
aI0
aI0
aI0
asS'sofa left'
p315
(lp316
I0
aI1
aI0
aI0
aI0
aI0
aI0
aI0
aI1
aI0
aI0
aI0
aI0
aI0
asS'fan red front'
p317
(lp318
I0
aI0
aI0
aI1
aI0
aI1
aI0
aI0
aI0
aI0
aI1
aI0
aI0
aI0
asS'chair blue back small'
p319
(lp320
I1
aI0
aI0
aI0
aI1
aI0
aI0
aI0
aI0
aI0
aI0
aI1
aI0
aI1
asS'chair front'
p321
(lp322
I1
aI0
aI0
aI0
aI0
aI0
aI0
aI0
aI0
aI0
aI1
aI0
aI0
aI0
asS'desk red right small'
p323
(lp324
I0
aI0
aI1
aI0
aI0
aI1
aI0
aI0
aI0
aI1
aI0
aI0
aI0
aI1
asS'green left large'
p325
(lp326
I0
aI0
aI0
aI0
aI0
aI0
aI1
aI0
aI1
aI0
aI0
aI0
aI1
aI0
asS'blue left'
p327
(lp328
I0
aI0
aI0
aI0
aI1
aI0
aI0
aI0
aI1
aI0
aI0
aI0
aI0
aI0
asS'desk green front'
p329
(lp330
I0
aI0
aI1
aI0
aI0
aI0
aI1
aI0
aI0
aI0
aI1
aI0
aI0
aI0
asS'fan blue right large'
p331
(lp332
I0
aI0
aI0
aI1
aI1
aI0
aI0
aI0
aI0
aI1
aI0
aI0
aI1
aI0
asS'green back'
p333
(lp334
I0
aI0
aI0
aI0
aI0
aI0
aI1
aI0
aI0
aI0
aI0
aI1
aI0
aI0
asS'fan grey back'
p335
(lp336
I0
aI0
aI0
aI1
aI0
aI0
aI0
aI1
aI0
aI0
aI0
aI1
aI0
aI0
asS'grey right small'
p337
(lp338
I0
aI0
aI0
aI0
aI0
aI0
aI0
aI1
aI0
aI1
aI0
aI0
aI0
aI1
asS'sofa red large'
p339
(lp340
I0
aI1
aI0
aI0
aI0
aI1
aI0
aI0
aI0
aI0
aI0
aI0
aI1
aI0
asS'chair green right small'
p341
(lp342
I1
aI0
aI0
aI0
aI0
aI0
aI1
aI0
aI0
aI1
aI0
aI0
aI0
aI1
asS'desk grey'
p343
(lp344
I0
aI0
aI1
aI0
aI0
aI0
aI0
aI1
aI0
aI0
aI0
aI0
aI0
aI0
asS'fan left large'
p345
(lp346
I0
aI0
aI0
aI1
aI0
aI0
aI0
aI0
aI1
aI0
aI0
aI0
aI1
aI0
asS'sofa back small'
p347
(lp348
I0
aI1
aI0
aI0
aI0
aI0
aI0
aI0
aI0
aI0
aI0
aI1
aI0
aI1
asS'sofa left large'
p349
(lp350
I0
aI1
aI0
aI0
aI0
aI0
aI0
aI0
aI1
aI0
aI0
aI0
aI1
aI0
asS'desk blue large'
p351
(lp352
I0
aI0
aI1
aI0
aI1
aI0
aI0
aI0
aI0
aI0
aI0
aI0
aI1
aI0
asS'chair blue right large'
p353
(lp354
I1
aI0
aI0
aI0
aI1
aI0
aI0
aI0
aI0
aI1
aI0
aI0
aI1
aI0
asS'fan back'
p355
(lp356
I0
aI0
aI0
aI1
aI0
aI0
aI0
aI0
aI0
aI0
aI0
aI1
aI0
aI0
asS'chair blue left'
p357
(lp358
I1
aI0
aI0
aI0
aI1
aI0
aI0
aI0
aI1
aI0
aI0
aI0
aI0
aI0
asS'green'
p359
(lp360
I0
aI0
aI0
aI0
aI0
aI0
aI1
aI0
aI0
aI0
aI0
aI0
aI0
aI0
asS'left'
p361
(lp362
I0
aI0
aI0
aI0
aI0
aI0
aI0
aI0
aI1
aI0
aI0
aI0
aI0
aI0
asS'sofa blue front large'
p363
(lp364
I0
aI1
aI0
aI0
aI1
aI0
aI0
aI0
aI0
aI0
aI1
aI0
aI1
aI0
asS'desk green large'
p365
(lp366
I0
aI0
aI1
aI0
aI0
aI0
aI1
aI0
aI0
aI0
aI0
aI0
aI1
aI0
asS'sofa red right'
p367
(lp368
I0
aI1
aI0
aI0
aI0
aI1
aI0
aI0
aI0
aI1
aI0
aI0
aI0
aI0
asS'blue left small'
p369
(lp370
I0
aI0
aI0
aI0
aI1
aI0
aI0
aI0
aI1
aI0
aI0
aI0
aI0
aI1
asS'fan blue right small'
p371
(lp372
I0
aI0
aI0
aI1
aI1
aI0
aI0
aI0
aI0
aI1
aI0
aI0
aI0
aI1
asS'sofa red right small'
p373
(lp374
I0
aI1
aI0
aI0
aI0
aI1
aI0
aI0
aI0
aI1
aI0
aI0
aI0
aI1
asS'blue back'
p375
(lp376
I0
aI0
aI0
aI0
aI1
aI0
aI0
aI0
aI0
aI0
aI0
aI1
aI0
aI0
asS'grey left'
p377
(lp378
I0
aI0
aI0
aI0
aI0
aI0
aI0
aI1
aI1
aI0
aI0
aI0
aI0
aI0
asS'fan red left small'
p379
(lp380
I0
aI0
aI0
aI1
aI0
aI1
aI0
aI0
aI1
aI0
aI0
aI0
aI0
aI1
asS'fan green left large'
p381
(lp382
I0
aI0
aI0
aI1
aI0
aI0
aI1
aI0
aI1
aI0
aI0
aI0
aI1
aI0
asS'sofa green right large'
p383
(lp384
I0
aI1
aI0
aI0
aI0
aI0
aI1
aI0
aI0
aI1
aI0
aI0
aI1
aI0
asS'chair red left'
p385
(lp386
I1
aI0
aI0
aI0
aI0
aI1
aI0
aI0
aI1
aI0
aI0
aI0
aI0
aI0
asS'chair blue left small'
p387
(lp388
I1
aI0
aI0
aI0
aI1
aI0
aI0
aI0
aI1
aI0
aI0
aI0
aI0
aI1
asS'desk grey large'
p389
(lp390
I0
aI0
aI1
aI0
aI0
aI0
aI0
aI1
aI0
aI0
aI0
aI0
aI1
aI0
asS'sofa red front small'
p391
(lp392
I0
aI1
aI0
aI0
aI0
aI1
aI0
aI0
aI0
aI0
aI1
aI0
aI0
aI1
asS'sofa green right'
p393
(lp394
I0
aI1
aI0
aI0
aI0
aI0
aI1
aI0
aI0
aI1
aI0
aI0
aI0
aI0
asS'chair blue small'
p395
(lp396
I1
aI0
aI0
aI0
aI1
aI0
aI0
aI0
aI0
aI0
aI0
aI0
aI0
aI1
asS'chair left small'
p397
(lp398
I1
aI0
aI0
aI0
aI0
aI0
aI0
aI0
aI1
aI0
aI0
aI0
aI0
aI1
asS'fan red back'
p399
(lp400
I0
aI0
aI0
aI1
aI0
aI1
aI0
aI0
aI0
aI0
aI0
aI1
aI0
aI0
asS'fan back small'
p401
(lp402
I0
aI0
aI0
aI1
aI0
aI0
aI0
aI0
aI0
aI0
aI0
aI1
aI0
aI1
asS'sofa red front'
p403
(lp404
I0
aI1
aI0
aI0
aI0
aI1
aI0
aI0
aI0
aI0
aI1
aI0
aI0
aI0
asS'blue front small'
p405
(lp406
I0
aI0
aI0
aI0
aI1
aI0
aI0
aI0
aI0
aI0
aI1
aI0
aI0
aI1
asS'sofa green front'
p407
(lp408
I0
aI1
aI0
aI0
aI0
aI0
aI1
aI0
aI0
aI0
aI1
aI0
aI0
aI0
asS'chair grey front small'
p409
(lp410
I1
aI0
aI0
aI0
aI0
aI0
aI0
aI1
aI0
aI0
aI1
aI0
aI0
aI1
asS'desk green left'
p411
(lp412
I0
aI0
aI1
aI0
aI0
aI0
aI1
aI0
aI1
aI0
aI0
aI0
aI0
aI0
asS'desk green right small'
p413
(lp414
I0
aI0
aI1
aI0
aI0
aI0
aI1
aI0
aI0
aI1
aI0
aI0
aI0
aI1
asS'chair blue back large'
p415
(lp416
I1
aI0
aI0
aI0
aI1
aI0
aI0
aI0
aI0
aI0
aI0
aI1
aI1
aI0
asS'sofa grey right large'
p417
(lp418
I0
aI1
aI0
aI0
aI0
aI0
aI0
aI1
aI0
aI1
aI0
aI0
aI1
aI0
asS'fan red right small'
p419
(lp420
I0
aI0
aI0
aI1
aI0
aI1
aI0
aI0
aI0
aI1
aI0
aI0
aI0
aI1
asS'fan right'
p421
(lp422
I0
aI0
aI0
aI1
aI0
aI0
aI0
aI0
aI0
aI1
aI0
aI0
aI0
aI0
asS'grey back large'
p423
(lp424
I0
aI0
aI0
aI0
aI0
aI0
aI0
aI1
aI0
aI0
aI0
aI1
aI1
aI0
asS'desk red front large'
p425
(lp426
I0
aI0
aI1
aI0
aI0
aI1
aI0
aI0
aI0
aI0
aI1
aI0
aI1
aI0
asS'chair blue back'
p427
(lp428
I1
aI0
aI0
aI0
aI1
aI0
aI0
aI0
aI0
aI0
aI0
aI1
aI0
aI0
asS'fan grey left'
p429
(lp430
I0
aI0
aI0
aI1
aI0
aI0
aI0
aI1
aI1
aI0
aI0
aI0
aI0
aI0
asS'sofa grey right'
p431
(lp432
I0
aI1
aI0
aI0
aI0
aI0
aI0
aI1
aI0
aI1
aI0
aI0
aI0
aI0
asS'sofa green right small'
p433
(lp434
I0
aI1
aI0
aI0
aI0
aI0
aI1
aI0
aI0
aI1
aI0
aI0
aI0
aI1
asS'fan red left large'
p435
(lp436
I0
aI0
aI0
aI1
aI0
aI1
aI0
aI0
aI1
aI0
aI0
aI0
aI1
aI0
asS'desk'
p437
(lp438
I0
aI0
aI1
aI0
aI0
aI0
aI0
aI0
aI0
aI0
aI0
aI0
aI0
aI0
asS'front'
p439
(lp440
I0
aI0
aI0
aI0
aI0
aI0
aI0
aI0
aI0
aI0
aI1
aI0
aI0
aI0
asS'green right large'
p441
(lp442
I0
aI0
aI0
aI0
aI0
aI0
aI1
aI0
aI0
aI1
aI0
aI0
aI1
aI0
asS'fan green front small'
p443
(lp444
I0
aI0
aI0
aI1
aI0
aI0
aI1
aI0
aI0
aI0
aI1
aI0
aI0
aI1
asS'desk red right'
p445
(lp446
I0
aI0
aI1
aI0
aI0
aI1
aI0
aI0
aI0
aI1
aI0
aI0
aI0
aI0
asS'desk grey front large'
p447
(lp448
I0
aI0
aI1
aI0
aI0
aI0
aI0
aI1
aI0
aI0
aI1
aI0
aI1
aI0
asS'green front large'
p449
(lp450
I0
aI0
aI0
aI0
aI0
aI0
aI1
aI0
aI0
aI0
aI1
aI0
aI1
aI0
asS'sofa'
p451
(lp452
I0
aI1
aI0
aI0
aI0
aI0
aI0
aI0
aI0
aI0
aI0
aI0
aI0
aI0
asS'back large'
p453
(lp454
I0
aI0
aI0
aI0
aI0
aI0
aI0
aI0
aI0
aI0
aI0
aI1
aI1
aI0
asS'chair red'
p455
(lp456
I1
aI0
aI0
aI0
aI0
aI1
aI0
aI0
aI0
aI0
aI0
aI0
aI0
aI0
asS'fan green small'
p457
(lp458
I0
aI0
aI0
aI1
aI0
aI0
aI1
aI0
aI0
aI0
aI0
aI0
aI0
aI1
asS'chair blue front small'
p459
(lp460
I1
aI0
aI0
aI0
aI1
aI0
aI0
aI0
aI0
aI0
aI1
aI0
aI0
aI1
asS'desk blue back large'
p461
(lp462
I0
aI0
aI1
aI0
aI1
aI0
aI0
aI0
aI0
aI0
aI0
aI1
aI1
aI0
asS'desk left small'
p463
(lp464
I0
aI0
aI1
aI0
aI0
aI0
aI0
aI0
aI1
aI0
aI0
aI0
aI0
aI1
asS'fan red right'
p465
(lp466
I0
aI0
aI0
aI1
aI0
aI1
aI0
aI0
aI0
aI1
aI0
aI0
aI0
aI0
asS'desk left'
p467
(lp468
I0
aI0
aI1
aI0
aI0
aI0
aI0
aI0
aI1
aI0
aI0
aI0
aI0
aI0
asS'red right large'
p469
(lp470
I0
aI0
aI0
aI0
aI0
aI1
aI0
aI0
aI0
aI1
aI0
aI0
aI1
aI0
asS'sofa grey back small'
p471
(lp472
I0
aI1
aI0
aI0
aI0
aI0
aI0
aI1
aI0
aI0
aI0
aI1
aI0
aI1
asS'right'
p473
(lp474
I0
aI0
aI0
aI0
aI0
aI0
aI0
aI0
aI0
aI1
aI0
aI0
aI0
aI0
asS'sofa blue'
p475
(lp476
I0
aI1
aI0
aI0
aI1
aI0
aI0
aI0
aI0
aI0
aI0
aI0
aI0
aI0
asS'sofa green large'
p477
(lp478
I0
aI1
aI0
aI0
aI0
aI0
aI1
aI0
aI0
aI0
aI0
aI0
aI1
aI0
asS'fan green front'
p479
(lp480
I0
aI0
aI0
aI1
aI0
aI0
aI1
aI0
aI0
aI0
aI1
aI0
aI0
aI0
asS'back'
p481
(lp482
I0
aI0
aI0
aI0
aI0
aI0
aI0
aI0
aI0
aI0
aI0
aI1
aI0
aI0
asS'grey front'
p483
(lp484
I0
aI0
aI0
aI0
aI0
aI0
aI0
aI1
aI0
aI0
aI1
aI0
aI0
aI0
asS'chair red front small'
p485
(lp486
I1
aI0
aI0
aI0
aI0
aI1
aI0
aI0
aI0
aI0
aI1
aI0
aI0
aI1
asS'fan red left'
p487
(lp488
I0
aI0
aI0
aI1
aI0
aI1
aI0
aI0
aI1
aI0
aI0
aI0
aI0
aI0
asS'blue back large'
p489
(lp490
I0
aI0
aI0
aI0
aI1
aI0
aI0
aI0
aI0
aI0
aI0
aI1
aI1
aI0
asS'chair grey small'
p491
(lp492
I1
aI0
aI0
aI0
aI0
aI0
aI0
aI1
aI0
aI0
aI0
aI0
aI0
aI1
asS'chair grey left large'
p493
(lp494
I1
aI0
aI0
aI0
aI0
aI0
aI0
aI1
aI1
aI0
aI0
aI0
aI1
aI0
asS'fan grey'
p495
(lp496
I0
aI0
aI0
aI1
aI0
aI0
aI0
aI1
aI0
aI0
aI0
aI0
aI0
aI0
asS'fan front small'
p497
(lp498
I0
aI0
aI0
aI1
aI0
aI0
aI0
aI0
aI0
aI0
aI1
aI0
aI0
aI1
asS'desk green back small'
p499
(lp500
I0
aI0
aI1
aI0
aI0
aI0
aI1
aI0
aI0
aI0
aI0
aI1
aI0
aI1
asS'fan blue left'
p501
(lp502
I0
aI0
aI0
aI1
aI1
aI0
aI0
aI0
aI1
aI0
aI0
aI0
aI0
aI0
asS'sofa red front large'
p503
(lp504
I0
aI1
aI0
aI0
aI0
aI1
aI0
aI0
aI0
aI0
aI1
aI0
aI1
aI0
asS'red'
p505
(lp506
I0
aI0
aI0
aI0
aI0
aI1
aI0
aI0
aI0
aI0
aI0
aI0
aI0
aI0
asS'desk green back'
p507
(lp508
I0
aI0
aI1
aI0
aI0
aI0
aI1
aI0
aI0
aI0
aI0
aI1
aI0
aI0
asS'fan front large'
p509
(lp510
I0
aI0
aI0
aI1
aI0
aI0
aI0
aI0
aI0
aI0
aI1
aI0
aI1
aI0
asS'grey back'
p511
(lp512
I0
aI0
aI0
aI0
aI0
aI0
aI0
aI1
aI0
aI0
aI0
aI1
aI0
aI0
asS'fan blue front small'
p513
(lp514
I0
aI0
aI0
aI1
aI1
aI0
aI0
aI0
aI0
aI0
aI1
aI0
aI0
aI1
asS'chair grey right large'
p515
(lp516
I1
aI0
aI0
aI0
aI0
aI0
aI0
aI1
aI0
aI1
aI0
aI0
aI1
aI0
asS'sofa right large'
p517
(lp518
I0
aI1
aI0
aI0
aI0
aI0
aI0
aI0
aI0
aI1
aI0
aI0
aI1
aI0
asS'green back large'
p519
(lp520
I0
aI0
aI0
aI0
aI0
aI0
aI1
aI0
aI0
aI0
aI0
aI1
aI1
aI0
asS'desk green front small'
p521
(lp522
I0
aI0
aI1
aI0
aI0
aI0
aI1
aI0
aI0
aI0
aI1
aI0
aI0
aI1
asS'desk back large'
p523
(lp524
I0
aI0
aI1
aI0
aI0
aI0
aI0
aI0
aI0
aI0
aI0
aI1
aI1
aI0
asS'fan blue back'
p525
(lp526
I0
aI0
aI0
aI1
aI1
aI0
aI0
aI0
aI0
aI0
aI0
aI1
aI0
aI0
asS'chair blue large'
p527
(lp528
I1
aI0
aI0
aI0
aI1
aI0
aI0
aI0
aI0
aI0
aI0
aI0
aI1
aI0
asS'chair small'
p529
(lp530
I1
aI0
aI0
aI0
aI0
aI0
aI0
aI0
aI0
aI0
aI0
aI0
aI0
aI1
asS'green right'
p531
(lp532
I0
aI0
aI0
aI0
aI0
aI0
aI1
aI0
aI0
aI1
aI0
aI0
aI0
aI0
asS'desk grey left'
p533
(lp534
I0
aI0
aI1
aI0
aI0
aI0
aI0
aI1
aI1
aI0
aI0
aI0
aI0
aI0
asS'fan grey large'
p535
(lp536
I0
aI0
aI0
aI1
aI0
aI0
aI0
aI1
aI0
aI0
aI0
aI0
aI1
aI0
asS'chair green back large'
p537
(lp538
I1
aI0
aI0
aI0
aI0
aI0
aI1
aI0
aI0
aI0
aI0
aI1
aI1
aI0
asS'chair blue right'
p539
(lp540
I1
aI0
aI0
aI0
aI1
aI0
aI0
aI0
aI0
aI1
aI0
aI0
aI0
aI0
asS'right small'
p541
(lp542
I0
aI0
aI0
aI0
aI0
aI0
aI0
aI0
aI0
aI1
aI0
aI0
aI0
aI1
asS'chair red right small'
p543
(lp544
I1
aI0
aI0
aI0
aI0
aI1
aI0
aI0
aI0
aI1
aI0
aI0
aI0
aI1
asS'sofa front'
p545
(lp546
I0
aI1
aI0
aI0
aI0
aI0
aI0
aI0
aI0
aI0
aI1
aI0
aI0
aI0
asS'fan grey back small'
p547
(lp548
I0
aI0
aI0
aI1
aI0
aI0
aI0
aI1
aI0
aI0
aI0
aI1
aI0
aI1
asS'fan blue small'
p549
(lp550
I0
aI0
aI0
aI1
aI1
aI0
aI0
aI0
aI0
aI0
aI0
aI0
aI0
aI1
asS'fan green right small'
p551
(lp552
I0
aI0
aI0
aI1
aI0
aI0
aI1
aI0
aI0
aI1
aI0
aI0
aI0
aI1
asS'chair blue front large'
p553
(lp554
I1
aI0
aI0
aI0
aI1
aI0
aI0
aI0
aI0
aI0
aI1
aI0
aI1
aI0
asS'chair red small'
p555
(lp556
I1
aI0
aI0
aI0
aI0
aI1
aI0
aI0
aI0
aI0
aI0
aI0
aI0
aI1
asS'fan grey left small'
p557
(lp558
I0
aI0
aI0
aI1
aI0
aI0
aI0
aI1
aI1
aI0
aI0
aI0
aI0
aI1
asS'blue right small'
p559
(lp560
I0
aI0
aI0
aI0
aI1
aI0
aI0
aI0
aI0
aI1
aI0
aI0
aI0
aI1
asS'desk green front large'
p561
(lp562
I0
aI0
aI1
aI0
aI0
aI0
aI1
aI0
aI0
aI0
aI1
aI0
aI1
aI0
asS'sofa green front small'
p563
(lp564
I0
aI1
aI0
aI0
aI0
aI0
aI1
aI0
aI0
aI0
aI1
aI0
aI0
aI1
asS'chair grey back small'
p565
(lp566
I1
aI0
aI0
aI0
aI0
aI0
aI0
aI1
aI0
aI0
aI0
aI1
aI0
aI1
asS'desk blue left small'
p567
(lp568
I0
aI0
aI1
aI0
aI1
aI0
aI0
aI0
aI1
aI0
aI0
aI0
aI0
aI1
asS'green large'
p569
(lp570
I0
aI0
aI0
aI0
aI0
aI0
aI1
aI0
aI0
aI0
aI0
aI0
aI1
aI0
asS'red large'
p571
(lp572
I0
aI0
aI0
aI0
aI0
aI1
aI0
aI0
aI0
aI0
aI0
aI0
aI1
aI0
asS'chair grey back'
p573
(lp574
I1
aI0
aI0
aI0
aI0
aI0
aI0
aI1
aI0
aI0
aI0
aI1
aI0
aI0
asS'fan red back large'
p575
(lp576
I0
aI0
aI0
aI1
aI0
aI1
aI0
aI0
aI0
aI0
aI0
aI1
aI1
aI0
asS'sofa blue back small'
p577
(lp578
I0
aI1
aI0
aI0
aI1
aI0
aI0
aI0
aI0
aI0
aI0
aI1
aI0
aI1
asS'fan blue left small'
p579
(lp580
I0
aI0
aI0
aI1
aI1
aI0
aI0
aI0
aI1
aI0
aI0
aI0
aI0
aI1
asS'sofa grey front small'
p581
(lp582
I0
aI1
aI0
aI0
aI0
aI0
aI0
aI1
aI0
aI0
aI1
aI0
aI0
aI1
asS'fan blue right'
p583
(lp584
I0
aI0
aI0
aI1
aI1
aI0
aI0
aI0
aI0
aI1
aI0
aI0
aI0
aI0
asS'chair red front'
p585
(lp586
I1
aI0
aI0
aI0
aI0
aI1
aI0
aI0
aI0
aI0
aI1
aI0
aI0
aI0
asS'sofa green back large'
p587
(lp588
I0
aI1
aI0
aI0
aI0
aI0
aI1
aI0
aI0
aI0
aI0
aI1
aI1
aI0
asS'grey right'
p589
(lp590
I0
aI0
aI0
aI0
aI0
aI0
aI0
aI1
aI0
aI1
aI0
aI0
aI0
aI0
asS'fan grey right small'
p591
(lp592
I0
aI0
aI0
aI1
aI0
aI0
aI0
aI1
aI0
aI1
aI0
aI0
aI0
aI1
asS'chair large'
p593
(lp594
I1
aI0
aI0
aI0
aI0
aI0
aI0
aI0
aI0
aI0
aI0
aI0
aI1
aI0
asS'sofa blue right'
p595
(lp596
I0
aI1
aI0
aI0
aI1
aI0
aI0
aI0
aI0
aI1
aI0
aI0
aI0
aI0
asS'chair red back'
p597
(lp598
I1
aI0
aI0
aI0
aI0
aI1
aI0
aI0
aI0
aI0
aI0
aI1
aI0
aI0
asS'desk large'
p599
(lp600
I0
aI0
aI1
aI0
aI0
aI0
aI0
aI0
aI0
aI0
aI0
aI0
aI1
aI0
asS'desk grey front small'
p601
(lp602
I0
aI0
aI1
aI0
aI0
aI0
aI0
aI1
aI0
aI0
aI1
aI0
aI0
aI1
asS'sofa front small'
p603
(lp604
I0
aI1
aI0
aI0
aI0
aI0
aI0
aI0
aI0
aI0
aI1
aI0
aI0
aI1
asS'grey left small'
p605
(lp606
I0
aI0
aI0
aI0
aI0
aI0
aI0
aI1
aI1
aI0
aI0
aI0
aI0
aI1
asS'sofa red back large'
p607
(lp608
I0
aI1
aI0
aI0
aI0
aI1
aI0
aI0
aI0
aI0
aI0
aI1
aI1
aI0
asS'desk grey right large'
p609
(lp610
I0
aI0
aI1
aI0
aI0
aI0
aI0
aI1
aI0
aI1
aI0
aI0
aI1
aI0
asS'desk right'
p611
(lp612
I0
aI0
aI1
aI0
aI0
aI0
aI0
aI0
aI0
aI1
aI0
aI0
aI0
aI0
asS'desk blue right'
p613
(lp614
I0
aI0
aI1
aI0
aI1
aI0
aI0
aI0
aI0
aI1
aI0
aI0
aI0
aI0
asS'red front large'
p615
(lp616
I0
aI0
aI0
aI0
aI0
aI1
aI0
aI0
aI0
aI0
aI1
aI0
aI1
aI0
asS'fan red right large'
p617
(lp618
I0
aI0
aI0
aI1
aI0
aI1
aI0
aI0
aI0
aI1
aI0
aI0
aI1
aI0
asS'green front'
p619
(lp620
I0
aI0
aI0
aI0
aI0
aI0
aI1
aI0
aI0
aI0
aI1
aI0
aI0
aI0
asS'sofa grey right small'
p621
(lp622
I0
aI1
aI0
aI0
aI0
aI0
aI0
aI1
aI0
aI1
aI0
aI0
aI0
aI1
asS'fan front'
p623
(lp624
I0
aI0
aI0
aI1
aI0
aI0
aI0
aI0
aI0
aI0
aI1
aI0
aI0
aI0
asS'desk grey right'
p625
(lp626
I0
aI0
aI1
aI0
aI0
aI0
aI0
aI1
aI0
aI1
aI0
aI0
aI0
aI0
asS'grey left large'
p627
(lp628
I0
aI0
aI0
aI0
aI0
aI0
aI0
aI1
aI1
aI0
aI0
aI0
aI1
aI0
asS'desk red right large'
p629
(lp630
I0
aI0
aI1
aI0
aI0
aI1
aI0
aI0
aI0
aI1
aI0
aI0
aI1
aI0
asS'fan back large'
p631
(lp632
I0
aI0
aI0
aI1
aI0
aI0
aI0
aI0
aI0
aI0
aI0
aI1
aI1
aI0
asS'sofa grey front'
p633
(lp634
I0
aI1
aI0
aI0
aI0
aI0
aI0
aI1
aI0
aI0
aI1
aI0
aI0
aI0
asS'fan left'
p635
(lp636
I0
aI0
aI0
aI1
aI0
aI0
aI0
aI0
aI1
aI0
aI0
aI0
aI0
aI0
asS'sofa grey front large'
p637
(lp638
I0
aI1
aI0
aI0
aI0
aI0
aI0
aI1
aI0
aI0
aI1
aI0
aI1
aI0
asS'sofa grey small'
p639
(lp640
I0
aI1
aI0
aI0
aI0
aI0
aI0
aI1
aI0
aI0
aI0
aI0
aI0
aI1
asS'grey'
p641
(lp642
I0
aI0
aI0
aI0
aI0
aI0
aI0
aI1
aI0
aI0
aI0
aI0
aI0
aI0
asS'fan green large'
p643
(lp644
I0
aI0
aI0
aI1
aI0
aI0
aI1
aI0
aI0
aI0
aI0
aI0
aI1
aI0
asS'chair red left large'
p645
(lp646
I1
aI0
aI0
aI0
aI0
aI1
aI0
aI0
aI1
aI0
aI0
aI0
aI1
aI0
asS'chair green left small'
p647
(lp648
I1
aI0
aI0
aI0
aI0
aI0
aI1
aI0
aI1
aI0
aI0
aI0
aI0
aI1
asS'red right small'
p649
(lp650
I0
aI0
aI0
aI0
aI0
aI1
aI0
aI0
aI0
aI1
aI0
aI0
aI0
aI1
asS'chair right'
p651
(lp652
I1
aI0
aI0
aI0
aI0
aI0
aI0
aI0
aI0
aI1
aI0
aI0
aI0
aI0
asS'fan grey small'
p653
(lp654
I0
aI0
aI0
aI1
aI0
aI0
aI0
aI1
aI0
aI0
aI0
aI0
aI0
aI1
asS'desk green right large'
p655
(lp656
I0
aI0
aI1
aI0
aI0
aI0
aI1
aI0
aI0
aI1
aI0
aI0
aI1
aI0
asS'red front'
p657
(lp658
I0
aI0
aI0
aI0
aI0
aI1
aI0
aI0
aI0
aI0
aI1
aI0
aI0
aI0
asS'sofa grey left small'
p659
(lp660
I0
aI1
aI0
aI0
aI0
aI0
aI0
aI1
aI1
aI0
aI0
aI0
aI0
aI1
asS'chair red front large'
p661
(lp662
I1
aI0
aI0
aI0
aI0
aI1
aI0
aI0
aI0
aI0
aI1
aI0
aI1
aI0
asS'sofa blue left'
p663
(lp664
I0
aI1
aI0
aI0
aI1
aI0
aI0
aI0
aI1
aI0
aI0
aI0
aI0
aI0
asS'sofa blue front small'
p665
(lp666
I0
aI1
aI0
aI0
aI1
aI0
aI0
aI0
aI0
aI0
aI1
aI0
aI0
aI1
asS'chair front small'
p667
(lp668
I1
aI0
aI0
aI0
aI0
aI0
aI0
aI0
aI0
aI0
aI1
aI0
aI0
aI1
asS'sofa blue left large'
p669
(lp670
I0
aI1
aI0
aI0
aI1
aI0
aI0
aI0
aI1
aI0
aI0
aI0
aI1
aI0
asS'chair grey large'
p671
(lp672
I1
aI0
aI0
aI0
aI0
aI0
aI0
aI1
aI0
aI0
aI0
aI0
aI1
aI0
asS'fan red front small'
p673
(lp674
I0
aI0
aI0
aI1
aI0
aI1
aI0
aI0
aI0
aI0
aI1
aI0
aI0
aI1
asS'blue front'
p675
(lp676
I0
aI0
aI0
aI0
aI1
aI0
aI0
aI0
aI0
aI0
aI1
aI0
aI0
aI0
asS'sofa green front large'
p677
(lp678
I0
aI1
aI0
aI0
aI0
aI0
aI1
aI0
aI0
aI0
aI1
aI0
aI1
aI0
asS'desk green back large'
p679
(lp680
I0
aI0
aI1
aI0
aI0
aI0
aI1
aI0
aI0
aI0
aI0
aI1
aI1
aI0
asS'grey front small'
p681
(lp682
I0
aI0
aI0
aI0
aI0
aI0
aI0
aI1
aI0
aI0
aI1
aI0
aI0
aI1
asS'blue right'
p683
(lp684
I0
aI0
aI0
aI0
aI1
aI0
aI0
aI0
aI0
aI1
aI0
aI0
aI0
aI0
asS'desk red small'
p685
(lp686
I0
aI0
aI1
aI0
aI0
aI1
aI0
aI0
aI0
aI0
aI0
aI0
aI0
aI1
asS'desk red back'
p687
(lp688
I0
aI0
aI1
aI0
aI0
aI1
aI0
aI0
aI0
aI0
aI0
aI1
aI0
aI0
asS'desk blue small'
p689
(lp690
I0
aI0
aI1
aI0
aI1
aI0
aI0
aI0
aI0
aI0
aI0
aI0
aI0
aI1
asS'desk grey small'
p691
(lp692
I0
aI0
aI1
aI0
aI0
aI0
aI0
aI1
aI0
aI0
aI0
aI0
aI0
aI1
asS'fan red'
p693
(lp694
I0
aI0
aI0
aI1
aI0
aI1
aI0
aI0
aI0
aI0
aI0
aI0
aI0
aI0
asS'front large'
p695
(lp696
I0
aI0
aI0
aI0
aI0
aI0
aI0
aI0
aI0
aI0
aI1
aI0
aI1
aI0
asS'fan blue front'
p697
(lp698
I0
aI0
aI0
aI1
aI1
aI0
aI0
aI0
aI0
aI0
aI1
aI0
aI0
aI0
asS'sofa blue right large'
p699
(lp700
I0
aI1
aI0
aI0
aI1
aI0
aI0
aI0
aI0
aI1
aI0
aI0
aI1
aI0
asS'fan green right'
p701
(lp702
I0
aI0
aI0
aI1
aI0
aI0
aI1
aI0
aI0
aI1
aI0
aI0
aI0
aI0
asS'green front small'
p703
(lp704
I0
aI0
aI0
aI0
aI0
aI0
aI1
aI0
aI0
aI0
aI1
aI0
aI0
aI1
asS'back small'
p705
(lp706
I0
aI0
aI0
aI0
aI0
aI0
aI0
aI0
aI0
aI0
aI0
aI1
aI0
aI1
asS'fan grey front'
p707
(lp708
I0
aI0
aI0
aI1
aI0
aI0
aI0
aI1
aI0
aI0
aI1
aI0
aI0
aI0
asS'green back small'
p709
(lp710
I0
aI0
aI0
aI0
aI0
aI0
aI1
aI0
aI0
aI0
aI0
aI1
aI0
aI1
asS'desk right small'
p711
(lp712
I0
aI0
aI1
aI0
aI0
aI0
aI0
aI0
aI0
aI1
aI0
aI0
aI0
aI1
asS'desk green left small'
p713
(lp714
I0
aI0
aI1
aI0
aI0
aI0
aI1
aI0
aI1
aI0
aI0
aI0
aI0
aI1
asS'desk blue front'
p715
(lp716
I0
aI0
aI1
aI0
aI1
aI0
aI0
aI0
aI0
aI0
aI1
aI0
aI0
aI0
asS'desk grey back small'
p717
(lp718
I0
aI0
aI1
aI0
aI0
aI0
aI0
aI1
aI0
aI0
aI0
aI1
aI0
aI1
asS'grey front large'
p719
(lp720
I0
aI0
aI0
aI0
aI0
aI0
aI0
aI1
aI0
aI0
aI1
aI0
aI1
aI0
asS'fan green back small'
p721
(lp722
I0
aI0
aI0
aI1
aI0
aI0
aI1
aI0
aI0
aI0
aI0
aI1
aI0
aI1
asS'desk small'
p723
(lp724
I0
aI0
aI1
aI0
aI0
aI0
aI0
aI0
aI0
aI0
aI0
aI0
aI0
aI1
asS'red back large'
p725
(lp726
I0
aI0
aI0
aI0
aI0
aI1
aI0
aI0
aI0
aI0
aI0
aI1
aI1
aI0
asS'sofa blue left small'
p727
(lp728
I0
aI1
aI0
aI0
aI1
aI0
aI0
aI0
aI1
aI0
aI0
aI0
aI0
aI1
asS'fan blue back large'
p729
(lp730
I0
aI0
aI0
aI1
aI1
aI0
aI0
aI0
aI0
aI0
aI0
aI1
aI1
aI0
asS'red front small'
p731
(lp732
I0
aI0
aI0
aI0
aI0
aI1
aI0
aI0
aI0
aI0
aI1
aI0
aI0
aI1
asS'desk red front'
p733
(lp734
I0
aI0
aI1
aI0
aI0
aI1
aI0
aI0
aI0
aI0
aI1
aI0
aI0
aI0
asS'desk green small'
p735
(lp736
I0
aI0
aI1
aI0
aI0
aI0
aI1
aI0
aI0
aI0
aI0
aI0
aI0
aI1
asS'sofa grey large'
p737
(lp738
I0
aI1
aI0
aI0
aI0
aI0
aI0
aI1
aI0
aI0
aI0
aI0
aI1
aI0
asS'desk grey back large'
p739
(lp740
I0
aI0
aI1
aI0
aI0
aI0
aI0
aI1
aI0
aI0
aI0
aI1
aI1
aI0
asS'sofa large'
p741
(lp742
I0
aI1
aI0
aI0
aI0
aI0
aI0
aI0
aI0
aI0
aI0
aI0
aI1
aI0
asS'desk front small'
p743
(lp744
I0
aI0
aI1
aI0
aI0
aI0
aI0
aI0
aI0
aI0
aI1
aI0
aI0
aI1
asS'fan green right large'
p745
(lp746
I0
aI0
aI0
aI1
aI0
aI0
aI1
aI0
aI0
aI1
aI0
aI0
aI1
aI0
asS'desk red left large'
p747
(lp748
I0
aI0
aI1
aI0
aI0
aI1
aI0
aI0
aI1
aI0
aI0
aI0
aI1
aI0
asS'sofa red back'
p749
(lp750
I0
aI1
aI0
aI0
aI0
aI1
aI0
aI0
aI0
aI0
aI0
aI1
aI0
aI0
asS'sofa green back'
p751
(lp752
I0
aI1
aI0
aI0
aI0
aI0
aI1
aI0
aI0
aI0
aI0
aI1
aI0
aI0
as(dp753
S'48'
p754
(lp755
I0
aI1
aI0
aI0
aI0
aI1
aI0
aI0
aI0
aI1
aI0
aI0
aI1
aI0
asS'98'
p756
(lp757
I0
aI1
aI0
aI0
aI0
aI0
aI1
aI0
aI0
aI0
aI0
aI1
aI0
aI1
asS'109'
p758
(lp759
I0
aI1
aI0
aI0
aI1
aI0
aI0
aI0
aI0
aI1
aI0
aI0
aI0
aI1
asS'112'
p760
(lp761
I0
aI1
aI0
aI0
aI0
aI1
aI0
aI0
aI0
aI1
aI0
aI0
aI0
aI1
asS'82'
p762
(lp763
I0
aI0
aI1
aI0
aI0
aI0
aI1
aI0
aI0
aI0
aI0
aI1
aI0
aI1
asS'93'
p764
(lp765
I0
aI0
aI1
aI0
aI1
aI0
aI0
aI0
aI0
aI1
aI0
aI0
aI0
aI1
asS'96'
p766
(lp767
I0
aI0
aI1
aI0
aI0
aI1
aI0
aI0
aI0
aI1
aI0
aI0
aI0
aI1
as(dp768
g5
(lp769
sg9
(lp770
sg15
(lp771
g756
ag762
asg17
(lp772
sg19
(lp773
sg23
(lp774
sg25
(lp775
sg27
(lp776
sg133
(lp777
sg33
(lp778
g754
ag760
ag766
asg35
(lp779
g758
asg37
(lp780
sg45
(lp781
sg51
(lp782
g756
asg55
(lp783
sg57
(lp784
sg59
(lp785
sg61
(lp786
sg63
(lp787
sg65
(lp788
sg73
(lp789
sg75
(lp790
sg77
(lp791
sg85
(lp792
sg87
(lp793
sg89
(lp794
sg95
(lp795
g754
asg677
(lp796
sg101
(lp797
g756
ag758
ag760
ag762
ag764
ag766
asg507
(lp798
g762
asg111
(lp799
g760
asg599
(lp800
sg117
(lp801
sg119
(lp802
sg673
(lp803
sg127
(lp804
g758
ag764
asg129
(lp805
sg131
(lp806
sg513
(lp807
sg135
(lp808
sg139
(lp809
sg141
(lp810
sg145
(lp811
sg149
(lp812
sg151
(lp813
sg153
(lp814
sg165
(lp815
sg167
(lp816
sg235
(lp817
sg179
(lp818
g760
ag766
asg181
(lp819
sg187
(lp820
sg189
(lp821
sg191
(lp822
sg193
(lp823
sg203
(lp824
g762
asg205
(lp825
sg211
(lp826
sg459
(lp827
sg221
(lp828
sg223
(lp829
g764
asg229
(lp830
sg231
(lp831
sg237
(lp832
sg243
(lp833
sg245
(lp834
sg247
(lp835
sg249
(lp836
sg251
(lp837
sg253
(lp838
sg255
(lp839
sg257
(lp840
sg259
(lp841
sg269
(lp842
sg273
(lp843
sg275
(lp844
sg277
(lp845
sg281
(lp846
sg287
(lp847
sg289
(lp848
sg295
(lp849
sg299
(lp850
sg303
(lp851
sg305
(lp852
sg307
(lp853
sg309
(lp854
sg317
(lp855
sg319
(lp856
sg321
(lp857
sg323
(lp858
g766
asg325
(lp859
sg327
(lp860
sg329
(lp861
sg331
(lp862
sg333
(lp863
g756
ag762
asg339
(lp864
g754
asg345
(lp865
sg347
(lp866
g756
asg349
(lp867
sg351
(lp868
sg353
(lp869
sg357
(lp870
sg359
(lp871
g756
ag762
asg363
(lp872
sg375
(lp873
sg381
(lp874
sg383
(lp875
sg385
(lp876
sg109
(lp877
sg561
(lp878
sg393
(lp879
sg147
(lp880
sg407
(lp881
sg409
(lp882
sg413
(lp883
sg415
(lp884
sg419
(lp885
sg423
(lp886
sg431
(lp887
sg373
(lp888
g760
asg439
(lp889
sg457
(lp890
sg461
(lp891
sg463
(lp892
sg465
(lp893
sg553
(lp894
sg469
(lp895
g754
asg471
(lp896
sg629
(lp897
sg483
(lp898
sg493
(lp899
sg497
(lp900
sg499
(lp901
g762
asg505
(lp902
g754
ag760
ag766
asg105
(lp903
sg511
(lp904
sg707
(lp905
sg523
(lp906
sg525
(lp907
sg225
(lp908
sg535
(lp909
sg539
(lp910
sg541
(lp911
g758
ag760
ag764
ag766
asg543
(lp912
sg547
(lp913
sg549
(lp914
sg551
(lp915
sg555
(lp916
sg563
(lp917
sg565
(lp918
sg567
(lp919
sg569
(lp920
sg571
(lp921
g754
asg575
(lp922
sg577
(lp923
sg583
(lp924
sg509
(lp925
sg587
(lp926
sg589
(lp927
sg591
(lp928
sg581
(lp929
sg113
(lp930
sg617
(lp931
sg605
(lp932
sg215
(lp933
g764
asg625
(lp934
sg627
(lp935
sg631
(lp936
sg633
(lp937
sg635
(lp938
sg637
(lp939
sg639
(lp940
sg641
(lp941
sg647
(lp942
sg649
(lp943
g760
ag766
asg655
(lp944
sg661
(lp945
sg669
(lp946
sg681
(lp947
sg685
(lp948
g766
asg687
(lp949
sg693
(lp950
sg695
(lp951
sg697
(lp952
sg701
(lp953
sg623
(lp954
sg711
(lp955
g764
ag766
asg715
(lp956
sg717
(lp957
sg719
(lp958
sg725
(lp959
sg731
(lp960
sg597
(lp961
sg751
(lp962
g756
asg7
(lp963
sg13
(lp964
sg69
(lp965
sg21
(lp966
sg29
(lp967
sg31
(lp968
sg39
(lp969
sg41
(lp970
sg43
(lp971
sg47
(lp972
sg49
(lp973
g754
ag760
asg53
(lp974
sg67
(lp975
sg71
(lp976
sg79
(lp977
sg81
(lp978
sg83
(lp979
g758
ag760
asg91
(lp980
sg93
(lp981
sg103
(lp982
sg107
(lp983
sg425
(lp984
sg115
(lp985
sg121
(lp986
g754
ag758
ag760
asg125
(lp987
g756
asg703
(lp988
sg137
(lp989
sg157
(lp990
sg143
(lp991
sg201
(lp992
sg155
(lp993
sg159
(lp994
sg161
(lp995
sg163
(lp996
sg267
(lp997
g756
asg169
(lp998
g758
asg171
(lp999
sg173
(lp1000
sg175
(lp1001
sg177
(lp1002
sg183
(lp1003
sg185
(lp1004
sg195
(lp1005
sg197
(lp1006
sg199
(lp1007
sg207
(lp1008
sg209
(lp1009
g762
asg213
(lp1010
sg217
(lp1011
sg411
(lp1012
sg123
(lp1013
sg233
(lp1014
g756
ag758
ag760
asg239
(lp1015
g758
ag764
asg241
(lp1016
sg691
(lp1017
sg261
(lp1018
sg265
(lp1019
sg271
(lp1020
sg279
(lp1021
g754
asg297
(lp1022
sg283
(lp1023
sg285
(lp1024
g766
asg291
(lp1025
sg293
(lp1026
g756
asg659
(lp1027
sg301
(lp1028
sg311
(lp1029
sg313
(lp1030
g762
asg315
(lp1031
sg477
(lp1032
sg335
(lp1033
sg337
(lp1034
sg341
(lp1035
sg343
(lp1036
sg645
(lp1037
sg355
(lp1038
sg361
(lp1039
sg365
(lp1040
sg367
(lp1041
g754
ag760
asg369
(lp1042
sg371
(lp1043
sg377
(lp1044
sg379
(lp1045
sg97
(lp1046
g754
asg387
(lp1047
sg389
(lp1048
sg395
(lp1049
sg397
(lp1050
sg399
(lp1051
sg401
(lp1052
sg403
(lp1053
sg405
(lp1054
sg227
(lp1055
sg421
(lp1056
sg427
(lp1057
sg429
(lp1058
sg433
(lp1059
sg435
(lp1060
sg437
(lp1061
g762
ag764
ag766
asg441
(lp1062
sg443
(lp1063
sg445
(lp1064
g766
asg447
(lp1065
sg449
(lp1066
sg451
(lp1067
g754
ag756
ag758
ag760
asg453
(lp1068
sg521
(lp1069
sg467
(lp1070
sg473
(lp1071
g754
ag758
ag760
ag764
ag766
asg475
(lp1072
g758
asg479
(lp1073
sg601
(lp1074
sg485
(lp1075
sg487
(lp1076
sg489
(lp1077
sg491
(lp1078
sg495
(lp1079
sg501
(lp1080
sg503
(lp1081
sg99
(lp1082
sg417
(lp1083
sg515
(lp1084
sg517
(lp1085
g754
asg519
(lp1086
sg739
(lp1087
sg527
(lp1088
sg529
(lp1089
sg531
(lp1090
sg533
(lp1091
sg537
(lp1092
sg545
(lp1093
sg557
(lp1094
sg559
(lp1095
g758
ag764
asg391
(lp1096
sg455
(lp1097
sg573
(lp1098
sg579
(lp1099
sg585
(lp1100
sg593
(lp1101
sg595
(lp1102
g758
asg603
(lp1103
sg607
(lp1104
sg609
(lp1105
sg735
(lp1106
g762
asg613
(lp1107
g764
asg615
(lp1108
sg619
(lp1109
sg621
(lp1110
sg219
(lp1111
sg481
(lp1112
g756
ag762
asg643
(lp1113
sg651
(lp1114
sg653
(lp1115
sg657
(lp1116
sg663
(lp1117
sg665
(lp1118
sg667
(lp1119
sg263
(lp1120
sg671
(lp1121
sg675
(lp1122
sg11
(lp1123
sg679
(lp1124
sg683
(lp1125
g758
ag764
asg689
(lp1126
g764
asg699
(lp1127
sg705
(lp1128
g756
ag762
asg709
(lp1129
g756
ag762
asg713
(lp1130
sg721
(lp1131
sg723
(lp1132
g762
ag764
ag766
asg727
(lp1133
sg729
(lp1134
sg733
(lp1135
sg611
(lp1136
g764
ag766
asg737
(lp1137
sg741
(lp1138
g754
asg743
(lp1139
sg745
(lp1140
sg747
(lp1141
sg749
(lp1142
stp1143
tp1144
Rp1145
ccollections
OrderedDict
p1146
((lp1147
(lp1148
S'messages'
p1149
ag4
aa(lp1150
S'targets'
p1151
ag753
aa(lp1152
S'sems'
p1153
ag768
aatp1154
Rp1155
bag1
(g2
g3
(g4
(dp1156
S'57'
p1157
(lp1158
I0
aI0
aI0
aI1
aI1
aI0
aI0
aI0
aI1
aI0
aI0
aI0
aI1
aI0
asS'36'
p1159
(lp1160
I0
aI1
aI0
aI0
aI0
aI1
aI0
aI0
aI0
aI0
aI0
aI1
aI1
aI0
asS'41'
p1161
(lp1162
I0
aI1
aI0
aI0
aI1
aI0
aI0
aI0
aI1
aI0
aI0
aI0
aI1
aI0
asS'121'
p1163
(lp1164
I0
aI0
aI0
aI1
aI1
aI0
aI0
aI0
aI1
aI0
aI0
aI0
aI0
aI1
asS'122'
p1165
(lp1166
I0
aI0
aI0
aI1
aI0
aI0
aI1
aI0
aI1
aI0
aI0
aI0
aI0
aI1
asS'52'
p1167
(lp1168
I0
aI0
aI0
aI1
aI0
aI1
aI0
aI0
aI0
aI0
aI0
aI1
aI1
aI0
asS'106'
p1169
(lp1170
I0
aI1
aI0
aI0
aI0
aI0
aI1
aI0
aI1
aI0
aI0
aI0
aI0
aI1
as(dp1171
g5
(lp1172
g1165
ag1169
asg9
(lp1173
sg15
(lp1174
g1165
ag1169
asg17
(lp1175
sg19
(lp1176
sg23
(lp1177
sg25
(lp1178
sg27
(lp1179
sg133
(lp1180
sg33
(lp1181
sg35
(lp1182
sg37
(lp1183
sg45
(lp1184
g1163
ag1165
asg51
(lp1185
g1169
asg55
(lp1186
g1157
asg57
(lp1187
sg59
(lp1188
sg61
(lp1189
g1157
ag1167
asg63
(lp1190
sg65
(lp1191
sg73
(lp1192
g1157
ag1163
ag1165
ag1167
asg75
(lp1193
sg77
(lp1194
sg85
(lp1195
sg87
(lp1196
sg89
(lp1197
sg95
(lp1198
g1157
ag1159
ag1161
ag1167
asg677
(lp1199
sg101
(lp1200
g1163
ag1165
ag1169
asg507
(lp1201
sg111
(lp1202
sg599
(lp1203
sg117
(lp1204
sg119
(lp1205
sg673
(lp1206
sg127
(lp1207
g1157
ag1161
ag1163
asg129
(lp1208
sg131
(lp1209
sg513
(lp1210
sg135
(lp1211
sg139
(lp1212
g1165
asg141
(lp1213
sg145
(lp1214
sg149
(lp1215
sg151
(lp1216
sg153
(lp1217
sg165
(lp1218
sg167
(lp1219
sg235
(lp1220
sg179
(lp1221
sg181
(lp1222
sg187
(lp1223
sg189
(lp1224
sg191
(lp1225
sg193
(lp1226
sg203
(lp1227
sg205
(lp1228
sg211
(lp1229
sg459
(lp1230
sg221
(lp1231
sg223
(lp1232
sg229
(lp1233
sg231
(lp1234
sg237
(lp1235
sg243
(lp1236
sg245
(lp1237
sg247
(lp1238
sg249
(lp1239
sg251
(lp1240
sg253
(lp1241
sg255
(lp1242
sg257
(lp1243
g1157
ag1161
asg259
(lp1244
sg269
(lp1245
sg273
(lp1246
sg275
(lp1247
g1165
asg277
(lp1248
g1159
ag1167
asg281
(lp1249
sg287
(lp1250
sg289
(lp1251
sg295
(lp1252
sg299
(lp1253
sg303
(lp1254
sg305
(lp1255
sg307
(lp1256
sg309
(lp1257
sg317
(lp1258
sg319
(lp1259
sg321
(lp1260
sg323
(lp1261
sg325
(lp1262
sg327
(lp1263
g1157
ag1161
ag1163
asg329
(lp1264
sg331
(lp1265
sg333
(lp1266
sg339
(lp1267
g1159
asg345
(lp1268
g1157
asg347
(lp1269
sg349
(lp1270
g1161
asg351
(lp1271
sg353
(lp1272
sg357
(lp1273
sg359
(lp1274
g1165
ag1169
asg363
(lp1275
sg375
(lp1276
sg381
(lp1277
sg383
(lp1278
sg385
(lp1279
sg109
(lp1280
sg561
(lp1281
sg393
(lp1282
sg147
(lp1283
sg407
(lp1284
sg409
(lp1285
sg413
(lp1286
sg415
(lp1287
sg419
(lp1288
sg423
(lp1289
sg431
(lp1290
sg373
(lp1291
sg439
(lp1292
sg457
(lp1293
g1165
asg461
(lp1294
sg463
(lp1295
sg465
(lp1296
sg553
(lp1297
sg469
(lp1298
sg471
(lp1299
sg629
(lp1300
sg483
(lp1301
sg493
(lp1302
sg497
(lp1303
sg499
(lp1304
sg505
(lp1305
g1159
ag1167
asg105
(lp1306
sg511
(lp1307
sg707
(lp1308
sg523
(lp1309
sg525
(lp1310
sg225
(lp1311
sg535
(lp1312
sg539
(lp1313
sg541
(lp1314
sg543
(lp1315
sg547
(lp1316
sg549
(lp1317
g1163
asg551
(lp1318
sg555
(lp1319
sg563
(lp1320
sg565
(lp1321
sg567
(lp1322
sg569
(lp1323
sg571
(lp1324
g1159
ag1167
asg575
(lp1325
g1167
asg577
(lp1326
sg583
(lp1327
sg509
(lp1328
sg587
(lp1329
sg589
(lp1330
sg591
(lp1331
sg581
(lp1332
sg113
(lp1333
sg617
(lp1334
sg605
(lp1335
sg215
(lp1336
sg625
(lp1337
sg627
(lp1338
sg631
(lp1339
g1167
asg633
(lp1340
sg635
(lp1341
g1157
ag1163
ag1165
asg637
(lp1342
sg639
(lp1343
sg641
(lp1344
sg647
(lp1345
sg649
(lp1346
sg655
(lp1347
sg661
(lp1348
sg669
(lp1349
g1161
asg681
(lp1350
sg685
(lp1351
sg687
(lp1352
sg693
(lp1353
g1167
asg695
(lp1354
sg697
(lp1355
sg701
(lp1356
sg623
(lp1357
sg711
(lp1358
sg715
(lp1359
sg717
(lp1360
sg719
(lp1361
sg725
(lp1362
g1159
ag1167
asg731
(lp1363
sg597
(lp1364
sg751
(lp1365
sg7
(lp1366
sg13
(lp1367
sg69
(lp1368
sg21
(lp1369
sg29
(lp1370
sg31
(lp1371
sg39
(lp1372
sg41
(lp1373
g1165
ag1169
asg43
(lp1374
g1167
asg47
(lp1375
sg49
(lp1376
g1159
asg53
(lp1377
sg67
(lp1378
sg71
(lp1379
g1157
ag1163
asg79
(lp1380
sg81
(lp1381
sg83
(lp1382
sg91
(lp1383
sg93
(lp1384
sg103
(lp1385
g1163
ag1165
ag1169
asg107
(lp1386
g1159
asg425
(lp1387
sg115
(lp1388
sg121
(lp1389
sg125
(lp1390
g1169
asg703
(lp1391
sg137
(lp1392
sg157
(lp1393
sg143
(lp1394
sg201
(lp1395
sg155
(lp1396
g1165
asg159
(lp1397
g1157
asg161
(lp1398
sg163
(lp1399
g1169
asg267
(lp1400
sg169
(lp1401
sg171
(lp1402
g1169
asg173
(lp1403
g1157
ag1161
asg175
(lp1404
sg177
(lp1405
g1161
asg183
(lp1406
sg185
(lp1407
sg195
(lp1408
sg197
(lp1409
sg199
(lp1410
sg207
(lp1411
sg209
(lp1412
sg213
(lp1413
sg217
(lp1414
sg411
(lp1415
sg123
(lp1416
sg233
(lp1417
g1169
asg239
(lp1418
g1163
asg241
(lp1419
g1163
ag1165
asg691
(lp1420
sg261
(lp1421
g1157
ag1161
asg265
(lp1422
sg271
(lp1423
sg279
(lp1424
sg297
(lp1425
g1169
asg283
(lp1426
sg285
(lp1427
sg291
(lp1428
sg293
(lp1429
g1159
asg659
(lp1430
sg301
(lp1431
sg311
(lp1432
sg313
(lp1433
sg315
(lp1434
g1161
ag1169
asg477
(lp1435
sg335
(lp1436
sg337
(lp1437
sg341
(lp1438
sg343
(lp1439
sg645
(lp1440
sg355
(lp1441
g1167
asg361
(lp1442
g1157
ag1161
ag1163
ag1165
ag1169
asg365
(lp1443
sg367
(lp1444
sg369
(lp1445
g1163
asg371
(lp1446
sg377
(lp1447
sg379
(lp1448
sg97
(lp1449
sg387
(lp1450
sg389
(lp1451
sg395
(lp1452
sg397
(lp1453
sg399
(lp1454
g1167
asg401
(lp1455
sg403
(lp1456
sg405
(lp1457
sg227
(lp1458
sg421
(lp1459
sg427
(lp1460
sg429
(lp1461
sg433
(lp1462
sg435
(lp1463
sg437
(lp1464
sg441
(lp1465
sg443
(lp1466
sg445
(lp1467
sg447
(lp1468
sg449
(lp1469
sg451
(lp1470
g1159
ag1161
ag1169
asg453
(lp1471
g1159
ag1167
asg521
(lp1472
sg467
(lp1473
sg473
(lp1474
sg475
(lp1475
g1161
asg479
(lp1476
sg601
(lp1477
sg485
(lp1478
sg487
(lp1479
sg489
(lp1480
sg491
(lp1481
sg495
(lp1482
sg501
(lp1483
g1157
ag1163
asg503
(lp1484
sg99
(lp1485
sg417
(lp1486
sg515
(lp1487
sg517
(lp1488
sg519
(lp1489
sg739
(lp1490
sg527
(lp1491
sg529
(lp1492
sg531
(lp1493
sg533
(lp1494
sg537
(lp1495
sg545
(lp1496
sg557
(lp1497
sg559
(lp1498
sg391
(lp1499
sg455
(lp1500
sg573
(lp1501
sg579
(lp1502
g1163
asg585
(lp1503
sg593
(lp1504
sg595
(lp1505
sg603
(lp1506
sg607
(lp1507
g1159
asg609
(lp1508
sg735
(lp1509
sg613
(lp1510
sg615
(lp1511
sg619
(lp1512
sg621
(lp1513
sg219
(lp1514
sg481
(lp1515
g1159
ag1167
asg643
(lp1516
sg651
(lp1517
sg653
(lp1518
sg657
(lp1519
sg663
(lp1520
g1161
asg665
(lp1521
sg667
(lp1522
sg263
(lp1523
sg671
(lp1524
sg675
(lp1525
sg11
(lp1526
sg679
(lp1527
sg683
(lp1528
sg689
(lp1529
sg699
(lp1530
sg705
(lp1531
sg709
(lp1532
sg713
(lp1533
sg721
(lp1534
sg723
(lp1535
sg727
(lp1536
sg729
(lp1537
sg733
(lp1538
sg611
(lp1539
sg737
(lp1540
sg741
(lp1541
g1159
ag1161
asg743
(lp1542
sg745
(lp1543
sg747
(lp1544
sg749
(lp1545
g1159
astp1546
tp1547
Rp1548
g1146
((lp1549
(lp1550
g1149
ag4
aa(lp1551
g1151
ag1156
aa(lp1552
g1153
ag1171
aatp1553
Rp1554
bag1
(g2
g3
(g4
(dp1555
S'11'
p1556
(lp1557
I1
aI0
aI0
aI0
aI0
aI0
aI0
aI1
aI1
aI0
aI0
aI0
aI1
aI0
asS'27'
p1558
(lp1559
I0
aI0
aI1
aI0
aI0
aI0
aI0
aI1
aI1
aI0
aI0
aI0
aI1
aI0
asS'22'
p1560
(lp1561
I0
aI0
aI1
aI0
aI0
aI0
aI1
aI0
aI0
aI0
aI1
aI0
aI1
aI0
asS'6'
p1562
(lp1563
I1
aI0
aI0
aI0
aI0
aI0
aI1
aI0
aI0
aI0
aI1
aI0
aI1
aI0
asS'86'
p1564
(lp1565
I0
aI0
aI1
aI0
aI0
aI0
aI1
aI0
aI0
aI0
aI1
aI0
aI0
aI1
asS'94'
p1566
(lp1567
I0
aI0
aI1
aI0
aI0
aI0
aI1
aI0
aI0
aI1
aI0
aI0
aI0
aI1
asS'78'
p1568
(lp1569
I1
aI0
aI0
aI0
aI0
aI0
aI1
aI0
aI0
aI1
aI0
aI0
aI0
aI1
as(dp1570
g5
(lp1571
sg9
(lp1572
sg15
(lp1573
g1564
ag1566
ag1568
asg17
(lp1574
sg19
(lp1575
sg23
(lp1576
sg25
(lp1577
sg27
(lp1578
g1556
ag1562
ag1568
asg133
(lp1579
sg33
(lp1580
sg35
(lp1581
sg37
(lp1582
sg45
(lp1583
sg51
(lp1584
sg55
(lp1585
sg57
(lp1586
g1560
ag1564
asg59
(lp1587
sg61
(lp1588
sg63
(lp1589
g1556
ag1558
asg65
(lp1590
sg73
(lp1591
sg75
(lp1592
sg77
(lp1593
sg85
(lp1594
sg87
(lp1595
sg89
(lp1596
sg95
(lp1597
g1556
ag1558
ag1560
ag1562
asg677
(lp1598
sg101
(lp1599
g1564
ag1566
ag1568
asg507
(lp1600
sg111
(lp1601
sg599
(lp1602
g1558
ag1560
asg117
(lp1603
sg119
(lp1604
sg673
(lp1605
sg127
(lp1606
sg129
(lp1607
sg131
(lp1608
g1556
asg513
(lp1609
sg135
(lp1610
g1562
asg139
(lp1611
sg141
(lp1612
sg145
(lp1613
g1556
asg149
(lp1614
g1558
asg151
(lp1615
sg153
(lp1616
g1556
asg165
(lp1617
sg167
(lp1618
sg235
(lp1619
sg179
(lp1620
sg181
(lp1621
sg187
(lp1622
sg189
(lp1623
g1566
asg191
(lp1624
sg193
(lp1625
g1560
asg203
(lp1626
sg205
(lp1627
sg211
(lp1628
sg459
(lp1629
sg221
(lp1630
g1568
asg223
(lp1631
sg229
(lp1632
sg231
(lp1633
sg237
(lp1634
g1568
asg243
(lp1635
g1562
asg245
(lp1636
g1566
ag1568
asg247
(lp1637
sg249
(lp1638
sg251
(lp1639
sg253
(lp1640
sg255
(lp1641
sg257
(lp1642
sg259
(lp1643
sg269
(lp1644
sg273
(lp1645
sg275
(lp1646
sg277
(lp1647
sg281
(lp1648
sg287
(lp1649
sg289
(lp1650
sg295
(lp1651
g1568
asg299
(lp1652
sg303
(lp1653
g1564
asg305
(lp1654
sg307
(lp1655
g1556
asg309
(lp1656
sg317
(lp1657
sg319
(lp1658
sg321
(lp1659
g1562
asg323
(lp1660
sg325
(lp1661
sg327
(lp1662
sg329
(lp1663
g1560
ag1564
asg331
(lp1664
sg333
(lp1665
sg339
(lp1666
sg345
(lp1667
sg347
(lp1668
sg349
(lp1669
sg351
(lp1670
sg353
(lp1671
sg357
(lp1672
sg359
(lp1673
g1560
ag1562
ag1564
ag1566
ag1568
asg363
(lp1674
sg375
(lp1675
sg381
(lp1676
sg383
(lp1677
sg385
(lp1678
sg109
(lp1679
sg561
(lp1680
g1560
asg393
(lp1681
sg147
(lp1682
sg407
(lp1683
sg409
(lp1684
sg413
(lp1685
g1566
asg415
(lp1686
sg419
(lp1687
sg423
(lp1688
sg431
(lp1689
sg373
(lp1690
sg439
(lp1691
g1560
ag1562
ag1564
asg457
(lp1692
sg461
(lp1693
sg463
(lp1694
sg465
(lp1695
sg553
(lp1696
sg469
(lp1697
sg471
(lp1698
sg629
(lp1699
sg483
(lp1700
sg493
(lp1701
g1556
asg497
(lp1702
sg499
(lp1703
sg505
(lp1704
sg105
(lp1705
sg511
(lp1706
sg707
(lp1707
sg523
(lp1708
sg525
(lp1709
sg225
(lp1710
sg535
(lp1711
sg539
(lp1712
sg541
(lp1713
g1566
ag1568
asg543
(lp1714
sg547
(lp1715
sg549
(lp1716
sg551
(lp1717
sg555
(lp1718
sg563
(lp1719
sg565
(lp1720
sg567
(lp1721
sg569
(lp1722
g1560
ag1562
asg571
(lp1723
sg575
(lp1724
sg577
(lp1725
sg583
(lp1726
sg509
(lp1727
sg587
(lp1728
sg589
(lp1729
sg591
(lp1730
sg581
(lp1731
sg113
(lp1732
sg617
(lp1733
sg605
(lp1734
sg215
(lp1735
sg625
(lp1736
sg627
(lp1737
g1556
ag1558
asg631
(lp1738
sg633
(lp1739
sg635
(lp1740
sg637
(lp1741
sg639
(lp1742
sg641
(lp1743
g1556
ag1558
asg647
(lp1744
sg649
(lp1745
sg655
(lp1746
sg661
(lp1747
sg669
(lp1748
sg681
(lp1749
sg685
(lp1750
sg687
(lp1751
sg693
(lp1752
sg695
(lp1753
g1560
ag1562
asg697
(lp1754
sg701
(lp1755
sg623
(lp1756
sg711
(lp1757
g1566
asg715
(lp1758
sg717
(lp1759
sg719
(lp1760
sg725
(lp1761
sg731
(lp1762
sg597
(lp1763
sg751
(lp1764
sg7
(lp1765
sg13
(lp1766
sg69
(lp1767
sg21
(lp1768
sg29
(lp1769
sg31
(lp1770
sg39
(lp1771
sg41
(lp1772
sg43
(lp1773
sg47
(lp1774
sg49
(lp1775
sg53
(lp1776
sg67
(lp1777
sg71
(lp1778
sg79
(lp1779
sg81
(lp1780
sg83
(lp1781
sg91
(lp1782
sg93
(lp1783
sg103
(lp1784
sg107
(lp1785
sg425
(lp1786
sg115
(lp1787
sg121
(lp1788
sg125
(lp1789
sg703
(lp1790
g1564
asg137
(lp1791
g1558
asg157
(lp1792
sg143
(lp1793
sg201
(lp1794
sg155
(lp1795
sg159
(lp1796
sg161
(lp1797
sg163
(lp1798
sg267
(lp1799
sg169
(lp1800
sg171
(lp1801
sg173
(lp1802
g1556
ag1558
asg175
(lp1803
sg177
(lp1804
sg183
(lp1805
g1562
ag1568
asg185
(lp1806
sg195
(lp1807
sg197
(lp1808
g1562
asg199
(lp1809
sg207
(lp1810
sg209
(lp1811
sg213
(lp1812
sg217
(lp1813
sg411
(lp1814
sg123
(lp1815
sg233
(lp1816
sg239
(lp1817
sg241
(lp1818
sg691
(lp1819
sg261
(lp1820
sg265
(lp1821
sg271
(lp1822
sg279
(lp1823
sg297
(lp1824
sg283
(lp1825
sg285
(lp1826
sg291
(lp1827
g1562
asg293
(lp1828
sg659
(lp1829
sg301
(lp1830
sg311
(lp1831
sg313
(lp1832
g1560
ag1564
ag1566
asg315
(lp1833
sg477
(lp1834
sg335
(lp1835
sg337
(lp1836
sg341
(lp1837
g1568
asg343
(lp1838
g1558
asg645
(lp1839
sg355
(lp1840
sg361
(lp1841
g1556
ag1558
asg365
(lp1842
g1560
asg367
(lp1843
sg369
(lp1844
sg371
(lp1845
sg377
(lp1846
g1556
ag1558
asg379
(lp1847
sg97
(lp1848
sg387
(lp1849
sg389
(lp1850
g1558
asg395
(lp1851
sg397
(lp1852
sg399
(lp1853
sg401
(lp1854
sg403
(lp1855
sg405
(lp1856
sg227
(lp1857
sg421
(lp1858
sg427
(lp1859
sg429
(lp1860
sg433
(lp1861
sg435
(lp1862
sg437
(lp1863
g1558
ag1560
ag1564
ag1566
asg441
(lp1864
sg443
(lp1865
sg445
(lp1866
sg447
(lp1867
sg449
(lp1868
g1560
ag1562
asg451
(lp1869
sg453
(lp1870
sg521
(lp1871
g1564
asg467
(lp1872
g1558
asg473
(lp1873
g1566
ag1568
asg475
(lp1874
sg479
(lp1875
sg601
(lp1876
sg485
(lp1877
sg487
(lp1878
sg489
(lp1879
sg491
(lp1880
sg495
(lp1881
sg501
(lp1882
sg503
(lp1883
sg99
(lp1884
sg417
(lp1885
sg515
(lp1886
sg517
(lp1887
sg519
(lp1888
sg739
(lp1889
sg527
(lp1890
sg529
(lp1891
g1568
asg531
(lp1892
g1566
ag1568
asg533
(lp1893
g1558
asg537
(lp1894
sg545
(lp1895
sg557
(lp1896
sg559
(lp1897
sg391
(lp1898
sg455
(lp1899
sg573
(lp1900
sg579
(lp1901
sg585
(lp1902
sg593
(lp1903
g1556
ag1562
asg595
(lp1904
sg603
(lp1905
sg607
(lp1906
sg609
(lp1907
sg735
(lp1908
g1564
ag1566
asg613
(lp1909
sg615
(lp1910
sg619
(lp1911
g1560
ag1562
ag1564
asg621
(lp1912
sg219
(lp1913
sg481
(lp1914
sg643
(lp1915
sg651
(lp1916
g1568
asg653
(lp1917
sg657
(lp1918
sg663
(lp1919
sg665
(lp1920
sg667
(lp1921
sg263
(lp1922
sg671
(lp1923
g1556
asg675
(lp1924
sg11
(lp1925
sg679
(lp1926
sg683
(lp1927
sg689
(lp1928
sg699
(lp1929
sg705
(lp1930
sg709
(lp1931
sg713
(lp1932
sg721
(lp1933
sg723
(lp1934
g1564
ag1566
asg727
(lp1935
sg729
(lp1936
sg733
(lp1937
sg611
(lp1938
g1566
asg737
(lp1939
sg741
(lp1940
sg743
(lp1941
g1564
asg745
(lp1942
sg747
(lp1943
sg749
(lp1944
stp1945
tp1946
Rp1947
g1146
((lp1948
(lp1949
g1149
ag4
aa(lp1950
g1151
ag1555
aa(lp1951
g1153
ag1570
aatp1952
Rp1953
bag1
(g2
g3
(g4
(dp1954
S'20'
p1955
(lp1956
I0
aI0
aI1
aI0
aI0
aI1
aI0
aI0
aI0
aI0
aI0
aI1
aI1
aI0
asS'21'
p1957
(lp1958
I0
aI0
aI1
aI0
aI1
aI0
aI0
aI0
aI0
aI0
aI1
aI0
aI1
aI0
asS'23'
p1959
(lp1960
I0
aI0
aI1
aI0
aI0
aI0
aI0
aI1
aI0
aI0
aI1
aI0
aI1
aI0
asS'53'
p1961
(lp1962
I0
aI0
aI0
aI1
aI1
aI0
aI0
aI0
aI0
aI0
aI1
aI0
aI1
aI0
asS'52'
p1963
(lp1964
I0
aI0
aI0
aI1
aI0
aI1
aI0
aI0
aI0
aI0
aI0
aI1
aI1
aI0
asS'122'
p1965
(lp1966
I0
aI0
aI0
aI1
aI0
aI0
aI1
aI0
aI1
aI0
aI0
aI0
aI0
aI1
asS'90'
p1967
(lp1968
I0
aI0
aI1
aI0
aI0
aI0
aI1
aI0
aI1
aI0
aI0
aI0
aI0
aI1
as(dp1969
g5
(lp1970
g1965
ag1967
asg9
(lp1971
sg15
(lp1972
g1965
ag1967
asg17
(lp1973
sg19
(lp1974
sg23
(lp1975
sg25
(lp1976
sg27
(lp1977
sg133
(lp1978
sg33
(lp1979
sg35
(lp1980
sg37
(lp1981
sg45
(lp1982
g1965
asg51
(lp1983
sg55
(lp1984
sg57
(lp1985
g1957
ag1959
asg59
(lp1986
sg61
(lp1987
g1961
ag1963
asg63
(lp1988
g1959
asg65
(lp1989
sg73
(lp1990
g1961
ag1963
ag1965
asg75
(lp1991
g1955
asg77
(lp1992
sg85
(lp1993
sg87
(lp1994
sg89
(lp1995
sg95
(lp1996
g1955
ag1957
ag1959
ag1961
ag1963
asg677
(lp1997
sg101
(lp1998
g1965
ag1967
asg507
(lp1999
sg111
(lp2000
sg599
(lp2001
g1955
ag1957
ag1959
asg117
(lp2002
sg119
(lp2003
sg673
(lp2004
sg127
(lp2005
g1957
ag1961
asg129
(lp2006
sg131
(lp2007
sg513
(lp2008
sg135
(lp2009
sg139
(lp2010
g1965
asg141
(lp2011
sg145
(lp2012
sg149
(lp2013
sg151
(lp2014
sg153
(lp2015
sg165
(lp2016
sg167
(lp2017
sg235
(lp2018
sg179
(lp2019
sg181
(lp2020
sg187
(lp2021
sg189
(lp2022
sg191
(lp2023
sg193
(lp2024
g1957
ag1959
asg203
(lp2025
sg205
(lp2026
sg211
(lp2027
g1957
ag1961
asg459
(lp2028
sg221
(lp2029
sg223
(lp2030
g1957
asg229
(lp2031
sg231
(lp2032
sg237
(lp2033
sg243
(lp2034
sg245
(lp2035
sg247
(lp2036
sg249
(lp2037
sg251
(lp2038
sg253
(lp2039
sg255
(lp2040
sg257
(lp2041
sg259
(lp2042
sg269
(lp2043
sg273
(lp2044
sg275
(lp2045
g1965
asg277
(lp2046
g1955
ag1963
asg281
(lp2047
sg287
(lp2048
sg289
(lp2049
sg295
(lp2050
sg299
(lp2051
sg303
(lp2052
sg305
(lp2053
sg307
(lp2054
sg309
(lp2055
sg317
(lp2056
sg319
(lp2057
sg321
(lp2058
sg323
(lp2059
sg325
(lp2060
sg327
(lp2061
sg329
(lp2062
sg331
(lp2063
sg333
(lp2064
sg339
(lp2065
sg345
(lp2066
sg347
(lp2067
sg349
(lp2068
sg351
(lp2069
g1957
asg353
(lp2070
sg357
(lp2071
sg359
(lp2072
g1965
ag1967
asg363
(lp2073
sg375
(lp2074
sg381
(lp2075
sg383
(lp2076
sg385
(lp2077
sg109
(lp2078
sg561
(lp2079
sg393
(lp2080
sg147
(lp2081
sg407
(lp2082
sg409
(lp2083
sg413
(lp2084
sg415
(lp2085
sg419
(lp2086
sg423
(lp2087
sg431
(lp2088
sg373
(lp2089
sg439
(lp2090
g1957
ag1959
ag1961
asg457
(lp2091
g1965
asg461
(lp2092
sg463
(lp2093
g1967
asg465
(lp2094
sg553
(lp2095
sg469
(lp2096
sg471
(lp2097
sg629
(lp2098
sg483
(lp2099
g1959
asg493
(lp2100
sg497
(lp2101
sg499
(lp2102
sg505
(lp2103
g1955
ag1963
asg105
(lp2104
sg511
(lp2105
sg707
(lp2106
sg523
(lp2107
g1955
asg525
(lp2108
sg225
(lp2109
sg535
(lp2110
sg539
(lp2111
sg541
(lp2112
sg543
(lp2113
sg547
(lp2114
sg549
(lp2115
sg551
(lp2116
sg555
(lp2117
sg563
(lp2118
sg565
(lp2119
sg567
(lp2120
sg569
(lp2121
sg571
(lp2122
g1955
ag1963
asg575
(lp2123
g1963
asg577
(lp2124
sg583
(lp2125
sg509
(lp2126
g1961
asg587
(lp2127
sg589
(lp2128
sg591
(lp2129
sg581
(lp2130
sg113
(lp2131
sg617
(lp2132
sg605
(lp2133
sg215
(lp2134
sg625
(lp2135
sg627
(lp2136
sg631
(lp2137
g1963
asg633
(lp2138
sg635
(lp2139
g1965
asg637
(lp2140
sg639
(lp2141
sg641
(lp2142
g1959
asg647
(lp2143
sg649
(lp2144
sg655
(lp2145
sg661
(lp2146
sg669
(lp2147
sg681
(lp2148
sg685
(lp2149
sg687
(lp2150
g1955
asg693
(lp2151
g1963
asg695
(lp2152
g1957
ag1959
ag1961
asg697
(lp2153
g1961
asg701
(lp2154
sg623
(lp2155
g1961
asg711
(lp2156
sg715
(lp2157
g1957
asg717
(lp2158
sg719
(lp2159
g1959
asg725
(lp2160
g1955
ag1963
asg731
(lp2161
sg597
(lp2162
sg751
(lp2163
sg7
(lp2164
sg13
(lp2165
sg69
(lp2166
sg21
(lp2167
sg29
(lp2168
sg31
(lp2169
sg39
(lp2170
sg41
(lp2171
g1965
ag1967
asg43
(lp2172
g1963
asg47
(lp2173
sg49
(lp2174
sg53
(lp2175
g1957
asg67
(lp2176
sg71
(lp2177
g1961
asg79
(lp2178
sg81
(lp2179
sg83
(lp2180
sg91
(lp2181
sg93
(lp2182
sg103
(lp2183
g1965
ag1967
asg107
(lp2184
sg425
(lp2185
sg115
(lp2186
sg121
(lp2187
sg125
(lp2188
sg703
(lp2189
sg137
(lp2190
sg157
(lp2191
sg143
(lp2192
g1955
asg201
(lp2193
sg155
(lp2194
g1965
asg159
(lp2195
g1961
asg161
(lp2196
sg163
(lp2197
sg267
(lp2198
sg169
(lp2199
sg171
(lp2200
sg173
(lp2201
sg175
(lp2202
sg177
(lp2203
sg183
(lp2204
sg185
(lp2205
sg195
(lp2206
sg197
(lp2207
sg199
(lp2208
sg207
(lp2209
sg209
(lp2210
g1955
asg213
(lp2211
sg217
(lp2212
sg411
(lp2213
g1967
asg123
(lp2214
sg233
(lp2215
sg239
(lp2216
sg241
(lp2217
g1965
asg691
(lp2218
sg261
(lp2219
g1957
ag1961
asg265
(lp2220
g1959
asg271
(lp2221
sg279
(lp2222
sg297
(lp2223
sg283
(lp2224
sg285
(lp2225
g1955
asg291
(lp2226
sg293
(lp2227
sg659
(lp2228
sg301
(lp2229
sg311
(lp2230
sg313
(lp2231
g1967
asg315
(lp2232
sg477
(lp2233
sg335
(lp2234
sg337
(lp2235
sg341
(lp2236
sg343
(lp2237
g1959
asg645
(lp2238
sg355
(lp2239
g1963
asg361
(lp2240
g1965
ag1967
asg365
(lp2241
sg367
(lp2242
sg369
(lp2243
sg371
(lp2244
sg377
(lp2245
sg379
(lp2246
sg97
(lp2247
sg387
(lp2248
sg389
(lp2249
g1959
asg395
(lp2250
sg397
(lp2251
sg399
(lp2252
g1963
asg401
(lp2253
sg403
(lp2254
sg405
(lp2255
sg227
(lp2256
sg421
(lp2257
sg427
(lp2258
sg429
(lp2259
sg433
(lp2260
sg435
(lp2261
sg437
(lp2262
g1955
ag1957
ag1959
ag1967
asg441
(lp2263
sg443
(lp2264
sg445
(lp2265
sg447
(lp2266
g1959
asg449
(lp2267
sg451
(lp2268
sg453
(lp2269
g1955
ag1963
asg521
(lp2270
sg467
(lp2271
g1967
asg473
(lp2272
sg475
(lp2273
sg479
(lp2274
sg601
(lp2275
sg485
(lp2276
sg487
(lp2277
sg489
(lp2278
sg491
(lp2279
sg495
(lp2280
sg501
(lp2281
sg503
(lp2282
sg99
(lp2283
sg417
(lp2284
sg515
(lp2285
sg517
(lp2286
sg519
(lp2287
sg739
(lp2288
sg527
(lp2289
sg529
(lp2290
sg531
(lp2291
sg533
(lp2292
sg537
(lp2293
sg545
(lp2294
sg557
(lp2295
sg559
(lp2296
sg391
(lp2297
sg455
(lp2298
sg573
(lp2299
sg579
(lp2300
sg585
(lp2301
sg593
(lp2302
sg595
(lp2303
sg603
(lp2304
sg607
(lp2305
sg609
(lp2306
sg735
(lp2307
g1967
asg613
(lp2308
sg615
(lp2309
sg619
(lp2310
sg621
(lp2311
sg219
(lp2312
sg481
(lp2313
g1955
ag1963
asg643
(lp2314
sg651
(lp2315
sg653
(lp2316
sg657
(lp2317
sg663
(lp2318
sg665
(lp2319
sg667
(lp2320
sg263
(lp2321
sg671
(lp2322
sg675
(lp2323
g1957
ag1961
asg11
(lp2324
g1961
asg679
(lp2325
sg683
(lp2326
sg689
(lp2327
sg699
(lp2328
sg705
(lp2329
sg709
(lp2330
sg713
(lp2331
g1967
asg721
(lp2332
sg723
(lp2333
g1967
asg727
(lp2334
sg729
(lp2335
sg733
(lp2336
sg611
(lp2337
sg737
(lp2338
sg741
(lp2339
sg743
(lp2340
sg745
(lp2341
sg747
(lp2342
sg749
(lp2343
stp2344
tp2345
Rp2346
g1146
((lp2347
(lp2348
g1149
ag4
aa(lp2349
g1151
ag1954
aa(lp2350
g1153
ag1969
aatp2351
Rp2352
bag1
(g2
g3
(g4
(dp2353
S'39'
p2354
(lp2355
I0
aI1
aI0
aI0
aI0
aI0
aI0
aI1
aI0
aI0
aI1
aI0
aI1
aI0
asS'76'
p2356
(lp2357
I1
aI0
aI0
aI0
aI0
aI1
aI0
aI0
aI1
aI0
aI0
aI0
aI0
aI1
asS'108'
p2358
(lp2359
I0
aI1
aI0
aI0
aI0
aI1
aI0
aI0
aI1
aI0
aI0
aI0
aI0
aI1
asS'65'
p2360
(lp2361
I1
aI0
aI0
aI0
aI1
aI0
aI0
aI0
aI0
aI0
aI0
aI1
aI0
aI1
asS'7'
p2362
(lp2363
I1
aI0
aI0
aI0
aI0
aI0
aI0
aI1
aI0
aI0
aI1
aI0
aI1
aI0
asS'80'
p2364
(lp2365
I1
aI0
aI0
aI0
aI0
aI1
aI0
aI0
aI0
aI1
aI0
aI0
aI0
aI1
asS'97'
p2366
(lp2367
I0
aI1
aI0
aI0
aI1
aI0
aI0
aI0
aI0
aI0
aI0
aI1
aI0
aI1
as(dp2368
g5
(lp2369
sg9
(lp2370
sg15
(lp2371
sg17
(lp2372
sg19
(lp2373
g2360
asg23
(lp2374
g2356
ag2358
asg25
(lp2375
sg27
(lp2376
g2356
ag2360
ag2362
ag2364
asg133
(lp2377
sg33
(lp2378
g2364
asg35
(lp2379
sg37
(lp2380
sg45
(lp2381
sg51
(lp2382
sg55
(lp2383
sg57
(lp2384
sg59
(lp2385
sg61
(lp2386
sg63
(lp2387
g2354
ag2362
asg65
(lp2388
g2360
asg73
(lp2389
sg75
(lp2390
sg77
(lp2391
sg85
(lp2392
g2362
asg87
(lp2393
sg89
(lp2394
sg95
(lp2395
g2354
ag2362
asg677
(lp2396
sg101
(lp2397
g2356
ag2358
ag2360
ag2364
ag2366
asg507
(lp2398
sg111
(lp2399
g2358
asg599
(lp2400
sg117
(lp2401
g2360
asg119
(lp2402
sg673
(lp2403
sg127
(lp2404
g2360
ag2366
asg129
(lp2405
sg131
(lp2406
sg513
(lp2407
sg135
(lp2408
sg139
(lp2409
sg141
(lp2410
sg145
(lp2411
g2356
asg149
(lp2412
sg151
(lp2413
sg153
(lp2414
g2362
asg165
(lp2415
sg167
(lp2416
g2358
asg235
(lp2417
sg179
(lp2418
g2356
ag2358
ag2364
asg181
(lp2419
sg187
(lp2420
sg189
(lp2421
sg191
(lp2422
sg193
(lp2423
sg203
(lp2424
sg205
(lp2425
sg211
(lp2426
sg459
(lp2427
sg221
(lp2428
sg223
(lp2429
sg229
(lp2430
sg231
(lp2431
sg237
(lp2432
sg243
(lp2433
g2362
asg245
(lp2434
sg247
(lp2435
sg249
(lp2436
sg251
(lp2437
g2366
asg253
(lp2438
sg255
(lp2439
sg257
(lp2440
sg259
(lp2441
sg269
(lp2442
sg273
(lp2443
sg275
(lp2444
sg277
(lp2445
sg281
(lp2446
sg287
(lp2447
sg289
(lp2448
g2354
asg295
(lp2449
g2364
asg299
(lp2450
g2358
asg303
(lp2451
sg305
(lp2452
sg307
(lp2453
sg309
(lp2454
sg317
(lp2455
sg319
(lp2456
g2360
asg321
(lp2457
g2362
asg323
(lp2458
sg325
(lp2459
sg327
(lp2460
sg329
(lp2461
sg331
(lp2462
sg333
(lp2463
sg339
(lp2464
sg345
(lp2465
sg347
(lp2466
g2366
asg349
(lp2467
sg351
(lp2468
sg353
(lp2469
sg357
(lp2470
sg359
(lp2471
sg363
(lp2472
sg375
(lp2473
g2360
ag2366
asg381
(lp2474
sg383
(lp2475
sg385
(lp2476
g2356
asg109
(lp2477
sg561
(lp2478
sg393
(lp2479
sg147
(lp2480
g2360
ag2366
asg407
(lp2481
sg409
(lp2482
sg413
(lp2483
sg415
(lp2484
sg419
(lp2485
sg423
(lp2486
sg431
(lp2487
sg373
(lp2488
sg439
(lp2489
g2354
ag2362
asg457
(lp2490
sg461
(lp2491
sg463
(lp2492
sg465
(lp2493
sg553
(lp2494
sg469
(lp2495
sg471
(lp2496
sg629
(lp2497
sg483
(lp2498
g2354
ag2362
asg493
(lp2499
sg497
(lp2500
sg499
(lp2501
sg505
(lp2502
g2356
ag2358
ag2364
asg105
(lp2503
g2356
asg511
(lp2504
sg707
(lp2505
sg523
(lp2506
sg525
(lp2507
sg225
(lp2508
sg535
(lp2509
sg539
(lp2510
sg541
(lp2511
g2364
asg543
(lp2512
g2364
asg547
(lp2513
sg549
(lp2514
sg551
(lp2515
sg555
(lp2516
g2356
ag2364
asg563
(lp2517
sg565
(lp2518
sg567
(lp2519
sg569
(lp2520
sg571
(lp2521
sg575
(lp2522
sg577
(lp2523
g2366
asg583
(lp2524
sg509
(lp2525
sg587
(lp2526
sg589
(lp2527
sg591
(lp2528
sg581
(lp2529
sg113
(lp2530
g2356
ag2358
asg617
(lp2531
sg605
(lp2532
sg215
(lp2533
sg625
(lp2534
sg627
(lp2535
sg631
(lp2536
sg633
(lp2537
g2354
asg635
(lp2538
sg637
(lp2539
g2354
asg639
(lp2540
sg641
(lp2541
g2354
ag2362
asg647
(lp2542
sg649
(lp2543
g2364
asg655
(lp2544
sg661
(lp2545
sg669
(lp2546
sg681
(lp2547
sg685
(lp2548
sg687
(lp2549
sg693
(lp2550
sg695
(lp2551
g2354
ag2362
asg697
(lp2552
sg701
(lp2553
sg623
(lp2554
sg711
(lp2555
sg715
(lp2556
sg717
(lp2557
sg719
(lp2558
g2354
ag2362
asg725
(lp2559
sg731
(lp2560
sg597
(lp2561
sg751
(lp2562
sg7
(lp2563
sg13
(lp2564
sg69
(lp2565
sg21
(lp2566
sg29
(lp2567
sg31
(lp2568
sg39
(lp2569
sg41
(lp2570
sg43
(lp2571
sg47
(lp2572
sg49
(lp2573
g2358
asg53
(lp2574
sg67
(lp2575
g2354
asg71
(lp2576
sg79
(lp2577
sg81
(lp2578
sg83
(lp2579
sg91
(lp2580
sg93
(lp2581
sg103
(lp2582
g2356
ag2358
asg107
(lp2583
sg425
(lp2584
sg115
(lp2585
sg121
(lp2586
sg125
(lp2587
sg703
(lp2588
sg137
(lp2589
sg157
(lp2590
sg143
(lp2591
sg201
(lp2592
g2362
asg155
(lp2593
sg159
(lp2594
sg161
(lp2595
sg163
(lp2596
g2358
asg267
(lp2597
sg169
(lp2598
g2366
asg171
(lp2599
sg173
(lp2600
sg175
(lp2601
sg177
(lp2602
sg183
(lp2603
sg185
(lp2604
sg195
(lp2605
sg197
(lp2606
sg199
(lp2607
sg207
(lp2608
sg209
(lp2609
sg213
(lp2610
sg217
(lp2611
sg411
(lp2612
sg123
(lp2613
sg233
(lp2614
g2358
ag2366
asg239
(lp2615
g2360
ag2366
asg241
(lp2616
sg691
(lp2617
sg261
(lp2618
sg265
(lp2619
sg271
(lp2620
sg279
(lp2621
sg297
(lp2622
sg283
(lp2623
sg285
(lp2624
sg291
(lp2625
sg293
(lp2626
g2366
asg659
(lp2627
sg301
(lp2628
sg311
(lp2629
sg313
(lp2630
sg315
(lp2631
g2358
asg477
(lp2632
sg335
(lp2633
sg337
(lp2634
sg341
(lp2635
sg343
(lp2636
sg645
(lp2637
sg355
(lp2638
sg361
(lp2639
g2356
ag2358
asg365
(lp2640
sg367
(lp2641
sg369
(lp2642
sg371
(lp2643
sg377
(lp2644
sg379
(lp2645
sg97
(lp2646
sg387
(lp2647
sg389
(lp2648
sg395
(lp2649
g2360
asg397
(lp2650
g2356
asg399
(lp2651
sg401
(lp2652
sg403
(lp2653
sg405
(lp2654
sg227
(lp2655
sg421
(lp2656
sg427
(lp2657
g2360
asg429
(lp2658
sg433
(lp2659
sg435
(lp2660
sg437
(lp2661
sg441
(lp2662
sg443
(lp2663
sg445
(lp2664
sg447
(lp2665
sg449
(lp2666
sg451
(lp2667
g2354
ag2358
ag2366
asg453
(lp2668
sg521
(lp2669
sg467
(lp2670
sg473
(lp2671
g2364
asg475
(lp2672
g2366
asg479
(lp2673
sg601
(lp2674
sg485
(lp2675
sg487
(lp2676
sg489
(lp2677
sg491
(lp2678
sg495
(lp2679
sg501
(lp2680
sg503
(lp2681
sg99
(lp2682
sg417
(lp2683
sg515
(lp2684
sg517
(lp2685
sg519
(lp2686
sg739
(lp2687
sg527
(lp2688
sg529
(lp2689
g2356
ag2360
ag2364
asg531
(lp2690
sg533
(lp2691
sg537
(lp2692
sg545
(lp2693
g2354
asg557
(lp2694
sg559
(lp2695
sg391
(lp2696
sg455
(lp2697
g2356
ag2364
asg573
(lp2698
sg579
(lp2699
sg585
(lp2700
sg593
(lp2701
g2362
asg595
(lp2702
sg603
(lp2703
sg607
(lp2704
sg609
(lp2705
sg735
(lp2706
sg613
(lp2707
sg615
(lp2708
sg619
(lp2709
sg621
(lp2710
sg219
(lp2711
g2364
asg481
(lp2712
g2360
ag2366
asg643
(lp2713
sg651
(lp2714
g2364
asg653
(lp2715
sg657
(lp2716
sg663
(lp2717
sg665
(lp2718
sg667
(lp2719
sg263
(lp2720
sg671
(lp2721
g2362
asg675
(lp2722
sg11
(lp2723
sg679
(lp2724
sg683
(lp2725
sg689
(lp2726
sg699
(lp2727
sg705
(lp2728
g2360
ag2366
asg709
(lp2729
sg713
(lp2730
sg721
(lp2731
sg723
(lp2732
sg727
(lp2733
sg729
(lp2734
sg733
(lp2735
sg611
(lp2736
sg737
(lp2737
g2354
asg741
(lp2738
g2354
asg743
(lp2739
sg745
(lp2740
sg747
(lp2741
sg749
(lp2742
stp2743
tp2744
Rp2745
g1146
((lp2746
(lp2747
g1149
ag4
aa(lp2748
g1151
ag2353
aa(lp2749
g1153
ag2368
aatp2750
Rp2751
bag1
(g2
g3
(g4
(dp2752
S'20'
p2753
(lp2754
I0
aI0
aI1
aI0
aI0
aI1
aI0
aI0
aI0
aI0
aI0
aI1
aI1
aI0
asS'23'
p2755
(lp2756
I0
aI0
aI1
aI0
aI0
aI0
aI0
aI1
aI0
aI0
aI1
aI0
aI1
aI0
asS'3'
p2757
(lp2758
I1
aI0
aI0
aI0
aI0
aI0
aI0
aI1
aI0
aI0
aI0
aI1
aI1
aI0
asS'4'
p2759
(lp2760
I1
aI0
aI0
aI0
aI0
aI1
aI0
aI0
aI0
aI0
aI0
aI1
aI1
aI0
asS'7'
p2761
(lp2762
I1
aI0
aI0
aI0
aI0
aI0
aI0
aI1
aI0
aI0
aI1
aI0
aI1
aI0
asS'67'
p2763
(lp2764
I1
aI0
aI0
aI0
aI0
aI0
aI0
aI1
aI0
aI0
aI0
aI1
aI0
aI1
asS'83'
p2765
(lp2766
I0
aI0
aI1
aI0
aI0
aI0
aI0
aI1
aI0
aI0
aI0
aI1
aI0
aI1
as(dp2767
g5
(lp2768
sg9
(lp2769
g2757
asg15
(lp2770
sg17
(lp2771
sg19
(lp2772
g2763
asg23
(lp2773
sg25
(lp2774
sg27
(lp2775
g2757
ag2759
ag2761
ag2763
asg133
(lp2776
sg33
(lp2777
sg35
(lp2778
sg37
(lp2779
sg45
(lp2780
sg51
(lp2781
sg55
(lp2782
sg57
(lp2783
g2755
asg59
(lp2784
sg61
(lp2785
sg63
(lp2786
g2755
ag2757
ag2761
asg65
(lp2787
sg73
(lp2788
sg75
(lp2789
g2753
asg77
(lp2790
sg85
(lp2791
g2761
asg87
(lp2792
sg89
(lp2793
sg95
(lp2794
g2753
ag2755
ag2757
ag2759
ag2761
asg677
(lp2795
sg101
(lp2796
g2763
ag2765
asg507
(lp2797
sg111
(lp2798
sg599
(lp2799
g2753
ag2755
asg117
(lp2800
g2757
ag2759
ag2763
asg119
(lp2801
g2763
ag2765
asg673
(lp2802
sg127
(lp2803
sg129
(lp2804
sg131
(lp2805
sg513
(lp2806
sg135
(lp2807
sg139
(lp2808
sg141
(lp2809
sg145
(lp2810
sg149
(lp2811
sg151
(lp2812
sg153
(lp2813
g2757
ag2761
ag2763
asg165
(lp2814
g2765
asg167
(lp2815
sg235
(lp2816
sg179
(lp2817
sg181
(lp2818
sg187
(lp2819
sg189
(lp2820
sg191
(lp2821
sg193
(lp2822
g2755
asg203
(lp2823
g2765
asg205
(lp2824
sg211
(lp2825
sg459
(lp2826
sg221
(lp2827
sg223
(lp2828
sg229
(lp2829
sg231
(lp2830
sg237
(lp2831
sg243
(lp2832
g2761
asg245
(lp2833
sg247
(lp2834
sg249
(lp2835
sg251
(lp2836
sg253
(lp2837
sg255
(lp2838
sg257
(lp2839
sg259
(lp2840
sg269
(lp2841
g2759
asg273
(lp2842
sg275
(lp2843
sg277
(lp2844
g2753
ag2759
asg281
(lp2845
sg287
(lp2846
sg289
(lp2847
sg295
(lp2848
sg299
(lp2849
sg303
(lp2850
sg305
(lp2851
g2763
ag2765
asg307
(lp2852
sg309
(lp2853
sg317
(lp2854
sg319
(lp2855
sg321
(lp2856
g2761
asg323
(lp2857
sg325
(lp2858
sg327
(lp2859
sg329
(lp2860
sg331
(lp2861
sg333
(lp2862
sg339
(lp2863
sg345
(lp2864
sg347
(lp2865
sg349
(lp2866
sg351
(lp2867
sg353
(lp2868
sg357
(lp2869
sg359
(lp2870
sg363
(lp2871
sg375
(lp2872
sg381
(lp2873
sg383
(lp2874
sg385
(lp2875
sg109
(lp2876
g2759
asg561
(lp2877
sg393
(lp2878
sg147
(lp2879
sg407
(lp2880
sg409
(lp2881
sg413
(lp2882
sg415
(lp2883
sg419
(lp2884
sg423
(lp2885
g2757
asg431
(lp2886
sg373
(lp2887
sg439
(lp2888
g2755
ag2761
asg457
(lp2889
sg461
(lp2890
sg463
(lp2891
sg465
(lp2892
sg553
(lp2893
sg469
(lp2894
sg471
(lp2895
sg629
(lp2896
sg483
(lp2897
g2755
ag2761
asg493
(lp2898
sg497
(lp2899
sg499
(lp2900
sg505
(lp2901
g2753
ag2759
asg105
(lp2902
sg511
(lp2903
g2757
ag2763
ag2765
asg707
(lp2904
sg523
(lp2905
g2753
asg525
(lp2906
sg225
(lp2907
sg535
(lp2908
sg539
(lp2909
sg541
(lp2910
sg543
(lp2911
sg547
(lp2912
sg549
(lp2913
sg551
(lp2914
sg555
(lp2915
sg563
(lp2916
sg565
(lp2917
g2763
asg567
(lp2918
sg569
(lp2919
sg571
(lp2920
g2753
ag2759
asg575
(lp2921
sg577
(lp2922
sg583
(lp2923
sg509
(lp2924
sg587
(lp2925
sg589
(lp2926
sg591
(lp2927
sg581
(lp2928
sg113
(lp2929
sg617
(lp2930
sg605
(lp2931
sg215
(lp2932
sg625
(lp2933
sg627
(lp2934
sg631
(lp2935
sg633
(lp2936
sg635
(lp2937
sg637
(lp2938
sg639
(lp2939
sg641
(lp2940
g2755
ag2757
ag2761
ag2763
ag2765
asg647
(lp2941
sg649
(lp2942
sg655
(lp2943
sg661
(lp2944
sg669
(lp2945
sg681
(lp2946
sg685
(lp2947
sg687
(lp2948
g2753
asg693
(lp2949
sg695
(lp2950
g2755
ag2761
asg697
(lp2951
sg701
(lp2952
sg623
(lp2953
sg711
(lp2954
sg715
(lp2955
sg717
(lp2956
g2765
asg719
(lp2957
g2755
ag2761
asg725
(lp2958
g2753
ag2759
asg731
(lp2959
sg597
(lp2960
g2759
asg751
(lp2961
sg7
(lp2962
sg13
(lp2963
sg69
(lp2964
sg21
(lp2965
sg29
(lp2966
sg31
(lp2967
sg39
(lp2968
sg41
(lp2969
sg43
(lp2970
sg47
(lp2971
sg49
(lp2972
sg53
(lp2973
sg67
(lp2974
sg71
(lp2975
sg79
(lp2976
sg81
(lp2977
sg83
(lp2978
sg91
(lp2979
sg93
(lp2980
sg103
(lp2981
sg107
(lp2982
sg425
(lp2983
sg115
(lp2984
sg121
(lp2985
sg125
(lp2986
sg703
(lp2987
sg137
(lp2988
sg157
(lp2989
sg143
(lp2990
g2753
asg201
(lp2991
g2761
asg155
(lp2992
sg159
(lp2993
sg161
(lp2994
sg163
(lp2995
sg267
(lp2996
sg169
(lp2997
sg171
(lp2998
sg173
(lp2999
sg175
(lp3000
sg177
(lp3001
sg183
(lp3002
sg185
(lp3003
sg195
(lp3004
sg197
(lp3005
sg199
(lp3006
sg207
(lp3007
sg209
(lp3008
g2753
ag2765
asg213
(lp3009
sg217
(lp3010
sg411
(lp3011
sg123
(lp3012
sg233
(lp3013
sg239
(lp3014
sg241
(lp3015
sg691
(lp3016
g2765
asg261
(lp3017
sg265
(lp3018
g2755
asg271
(lp3019
sg279
(lp3020
sg297
(lp3021
sg283
(lp3022
g2757
ag2759
asg285
(lp3023
g2753
asg291
(lp3024
sg293
(lp3025
sg659
(lp3026
sg301
(lp3027
sg311
(lp3028
sg313
(lp3029
sg315
(lp3030
sg477
(lp3031
sg335
(lp3032
sg337
(lp3033
sg341
(lp3034
sg343
(lp3035
g2755
ag2765
asg645
(lp3036
sg355
(lp3037
sg361
(lp3038
sg365
(lp3039
sg367
(lp3040
sg369
(lp3041
sg371
(lp3042
sg377
(lp3043
sg379
(lp3044
sg97
(lp3045
sg387
(lp3046
sg389
(lp3047
g2755
asg395
(lp3048
sg397
(lp3049
sg399
(lp3050
sg401
(lp3051
sg403
(lp3052
sg405
(lp3053
sg227
(lp3054
sg421
(lp3055
sg427
(lp3056
sg429
(lp3057
sg433
(lp3058
sg435
(lp3059
sg437
(lp3060
g2753
ag2755
ag2765
asg441
(lp3061
sg443
(lp3062
sg445
(lp3063
sg447
(lp3064
g2755
asg449
(lp3065
sg451
(lp3066
sg453
(lp3067
g2753
ag2757
ag2759
asg521
(lp3068
sg467
(lp3069
sg473
(lp3070
sg475
(lp3071
sg479
(lp3072
sg601
(lp3073
sg485
(lp3074
sg487
(lp3075
sg489
(lp3076
sg491
(lp3077
g2763
asg495
(lp3078
sg501
(lp3079
sg503
(lp3080
sg99
(lp3081
sg417
(lp3082
sg515
(lp3083
sg517
(lp3084
sg519
(lp3085
sg739
(lp3086
sg527
(lp3087
sg529
(lp3088
g2763
asg531
(lp3089
sg533
(lp3090
sg537
(lp3091
sg545
(lp3092
sg557
(lp3093
sg559
(lp3094
sg391
(lp3095
sg455
(lp3096
g2759
asg573
(lp3097
g2757
ag2763
asg579
(lp3098
sg585
(lp3099
sg593
(lp3100
g2757
ag2759
ag2761
asg595
(lp3101
sg603
(lp3102
sg607
(lp3103
sg609
(lp3104
sg735
(lp3105
sg613
(lp3106
sg615
(lp3107
sg619
(lp3108
sg621
(lp3109
sg219
(lp3110
sg481
(lp3111
g2753
ag2757
ag2759
ag2763
ag2765
asg643
(lp3112
sg651
(lp3113
sg653
(lp3114
sg657
(lp3115
sg663
(lp3116
sg665
(lp3117
sg667
(lp3118
sg263
(lp3119
sg671
(lp3120
g2757
ag2761
asg675
(lp3121
sg11
(lp3122
sg679
(lp3123
sg683
(lp3124
sg689
(lp3125
sg699
(lp3126
sg705
(lp3127
g2763
ag2765
asg709
(lp3128
sg713
(lp3129
sg721
(lp3130
sg723
(lp3131
g2765
asg727
(lp3132
sg729
(lp3133
sg733
(lp3134
sg611
(lp3135
sg737
(lp3136
sg741
(lp3137
sg743
(lp3138
sg745
(lp3139
sg747
(lp3140
sg749
(lp3141
stp3142
tp3143
Rp3144
g1146
((lp3145
(lp3146
g1149
ag4
aa(lp3147
g1151
ag2752
aa(lp3148
g1153
ag2767
aatp3149
Rp3150
bag1
(g2
g3
(g4
(dp3151
S'10'
p3152
(lp3153
I1
aI0
aI0
aI0
aI0
aI0
aI1
aI0
aI1
aI0
aI0
aI0
aI1
aI0
asS'58'
p3154
(lp3155
I0
aI0
aI0
aI1
aI0
aI0
aI1
aI0
aI1
aI0
aI0
aI0
aI1
aI0
asS'49'
p3156
(lp3157
I0
aI0
aI0
aI1
aI1
aI0
aI0
aI0
aI0
aI0
aI0
aI1
aI1
aI0
asS'1'
p3158
(lp3159
I1
aI0
aI0
aI0
aI1
aI0
aI0
aI0
aI0
aI0
aI0
aI1
aI1
aI0
asS'71'
p3160
(lp3161
I1
aI0
aI0
aI0
aI0
aI0
aI0
aI1
aI0
aI0
aI1
aI0
aI0
aI1
asS'9'
p3162
(lp3163
I1
aI0
aI0
aI0
aI1
aI0
aI0
aI0
aI1
aI0
aI0
aI0
aI1
aI0
asS'119'
p3164
(lp3165
I0
aI0
aI0
aI1
aI0
aI0
aI0
aI1
aI0
aI0
aI1
aI0
aI0
aI1
as(dp3166
g5
(lp3167
sg9
(lp3168
sg15
(lp3169
sg17
(lp3170
sg19
(lp3171
sg23
(lp3172
sg25
(lp3173
sg27
(lp3174
g3152
ag3158
ag3160
ag3162
asg133
(lp3175
sg33
(lp3176
sg35
(lp3177
sg37
(lp3178
sg45
(lp3179
g3164
asg51
(lp3180
sg55
(lp3181
sg57
(lp3182
sg59
(lp3183
sg61
(lp3184
g3154
ag3156
asg63
(lp3185
sg65
(lp3186
g3158
ag3162
asg73
(lp3187
g3154
ag3156
ag3164
asg75
(lp3188
sg77
(lp3189
sg85
(lp3190
g3160
asg87
(lp3191
sg89
(lp3192
sg95
(lp3193
g3152
ag3154
ag3156
ag3158
ag3162
asg677
(lp3194
sg101
(lp3195
g3160
ag3164
asg507
(lp3196
sg111
(lp3197
sg599
(lp3198
sg117
(lp3199
g3158
asg119
(lp3200
sg673
(lp3201
sg127
(lp3202
g3156
ag3158
ag3162
asg129
(lp3203
sg131
(lp3204
g3152
ag3162
asg513
(lp3205
sg135
(lp3206
sg139
(lp3207
sg141
(lp3208
sg145
(lp3209
g3152
ag3162
asg149
(lp3210
sg151
(lp3211
sg153
(lp3212
g3160
asg165
(lp3213
sg167
(lp3214
sg235
(lp3215
sg179
(lp3216
sg181
(lp3217
sg187
(lp3218
sg189
(lp3219
sg191
(lp3220
sg193
(lp3221
sg203
(lp3222
sg205
(lp3223
sg211
(lp3224
sg459
(lp3225
sg221
(lp3226
sg223
(lp3227
sg229
(lp3228
sg231
(lp3229
sg237
(lp3230
sg243
(lp3231
sg245
(lp3232
sg247
(lp3233
sg249
(lp3234
g3162
asg251
(lp3235
sg253
(lp3236
sg255
(lp3237
sg257
(lp3238
g3162
asg259
(lp3239
sg269
(lp3240
sg273
(lp3241
sg275
(lp3242
g3154
asg277
(lp3243
sg281
(lp3244
sg287
(lp3245
sg289
(lp3246
sg295
(lp3247
sg299
(lp3248
sg303
(lp3249
g3160
ag3164
asg305
(lp3250
g3160
ag3164
asg307
(lp3251
sg309
(lp3252
sg317
(lp3253
sg319
(lp3254
sg321
(lp3255
g3160
asg323
(lp3256
sg325
(lp3257
g3152
ag3154
asg327
(lp3258
g3162
asg329
(lp3259
sg331
(lp3260
sg333
(lp3261
sg339
(lp3262
sg345
(lp3263
g3154
asg347
(lp3264
sg349
(lp3265
sg351
(lp3266
sg353
(lp3267
sg357
(lp3268
g3162
asg359
(lp3269
g3152
ag3154
asg363
(lp3270
sg375
(lp3271
g3156
ag3158
asg381
(lp3272
g3154
asg383
(lp3273
sg385
(lp3274
sg109
(lp3275
sg561
(lp3276
sg393
(lp3277
sg147
(lp3278
sg407
(lp3279
sg409
(lp3280
g3160
asg413
(lp3281
sg415
(lp3282
g3158
asg419
(lp3283
sg423
(lp3284
sg431
(lp3285
sg373
(lp3286
sg439
(lp3287
g3160
ag3164
asg457
(lp3288
sg461
(lp3289
sg463
(lp3290
sg465
(lp3291
sg553
(lp3292
sg469
(lp3293
sg471
(lp3294
sg629
(lp3295
sg483
(lp3296
g3160
ag3164
asg493
(lp3297
sg497
(lp3298
g3164
asg499
(lp3299
sg505
(lp3300
sg105
(lp3301
sg511
(lp3302
sg707
(lp3303
g3164
asg523
(lp3304
sg525
(lp3305
g3156
asg225
(lp3306
sg535
(lp3307
sg539
(lp3308
sg541
(lp3309
sg543
(lp3310
sg547
(lp3311
sg549
(lp3312
sg551
(lp3313
sg555
(lp3314
sg563
(lp3315
sg565
(lp3316
sg567
(lp3317
sg569
(lp3318
g3152
ag3154
asg571
(lp3319
sg575
(lp3320
sg577
(lp3321
sg583
(lp3322
sg509
(lp3323
sg587
(lp3324
sg589
(lp3325
sg591
(lp3326
sg581
(lp3327
sg113
(lp3328
sg617
(lp3329
sg605
(lp3330
sg215
(lp3331
sg625
(lp3332
sg627
(lp3333
sg631
(lp3334
g3156
asg633
(lp3335
sg635
(lp3336
g3154
asg637
(lp3337
sg639
(lp3338
sg641
(lp3339
g3160
ag3164
asg647
(lp3340
sg649
(lp3341
sg655
(lp3342
sg661
(lp3343
sg669
(lp3344
sg681
(lp3345
g3160
ag3164
asg685
(lp3346
sg687
(lp3347
sg693
(lp3348
sg695
(lp3349
sg697
(lp3350
sg701
(lp3351
sg623
(lp3352
g3164
asg711
(lp3353
sg715
(lp3354
sg717
(lp3355
sg719
(lp3356
sg725
(lp3357
sg731
(lp3358
sg597
(lp3359
sg751
(lp3360
sg7
(lp3361
sg13
(lp3362
sg69
(lp3363
sg21
(lp3364
sg29
(lp3365
sg31
(lp3366
g3152
asg39
(lp3367
sg41
(lp3368
g3152
ag3154
asg43
(lp3369
sg47
(lp3370
sg49
(lp3371
sg53
(lp3372
sg67
(lp3373
sg71
(lp3374
g3156
asg79
(lp3375
sg81
(lp3376
sg83
(lp3377
sg91
(lp3378
sg93
(lp3379
sg103
(lp3380
sg107
(lp3381
sg425
(lp3382
sg115
(lp3383
sg121
(lp3384
sg125
(lp3385
sg703
(lp3386
sg137
(lp3387
sg157
(lp3388
sg143
(lp3389
sg201
(lp3390
sg155
(lp3391
g3154
asg159
(lp3392
g3156
asg161
(lp3393
sg163
(lp3394
sg267
(lp3395
sg169
(lp3396
sg171
(lp3397
sg173
(lp3398
g3152
ag3154
ag3162
asg175
(lp3399
g3164
asg177
(lp3400
sg183
(lp3401
g3152
asg185
(lp3402
sg195
(lp3403
sg197
(lp3404
g3152
asg199
(lp3405
g3152
asg207
(lp3406
sg209
(lp3407
sg213
(lp3408
sg217
(lp3409
sg411
(lp3410
sg123
(lp3411
sg233
(lp3412
sg239
(lp3413
sg241
(lp3414
sg691
(lp3415
sg261
(lp3416
g3156
ag3158
ag3162
asg265
(lp3417
sg271
(lp3418
sg279
(lp3419
sg297
(lp3420
sg283
(lp3421
g3158
asg285
(lp3422
sg291
(lp3423
sg293
(lp3424
sg659
(lp3425
sg301
(lp3426
sg311
(lp3427
sg313
(lp3428
sg315
(lp3429
sg477
(lp3430
sg335
(lp3431
sg337
(lp3432
sg341
(lp3433
sg343
(lp3434
sg645
(lp3435
sg355
(lp3436
g3156
asg361
(lp3437
g3152
ag3154
ag3162
asg365
(lp3438
sg367
(lp3439
sg369
(lp3440
sg371
(lp3441
sg377
(lp3442
sg379
(lp3443
sg97
(lp3444
sg387
(lp3445
sg389
(lp3446
sg395
(lp3447
sg397
(lp3448
sg399
(lp3449
sg401
(lp3450
sg403
(lp3451
sg405
(lp3452
sg227
(lp3453
sg421
(lp3454
sg427
(lp3455
g3158
asg429
(lp3456
sg433
(lp3457
sg435
(lp3458
sg437
(lp3459
sg441
(lp3460
sg443
(lp3461
sg445
(lp3462
sg447
(lp3463
sg449
(lp3464
sg451
(lp3465
sg453
(lp3466
g3156
ag3158
asg521
(lp3467
sg467
(lp3468
sg473
(lp3469
sg475
(lp3470
sg479
(lp3471
sg601
(lp3472
sg485
(lp3473
sg487
(lp3474
sg489
(lp3475
g3156
ag3158
asg491
(lp3476
g3160
asg495
(lp3477
g3164
asg501
(lp3478
sg503
(lp3479
sg99
(lp3480
sg417
(lp3481
sg515
(lp3482
sg517
(lp3483
sg519
(lp3484
sg739
(lp3485
sg527
(lp3486
g3158
ag3162
asg529
(lp3487
g3160
asg531
(lp3488
sg533
(lp3489
sg537
(lp3490
sg545
(lp3491
sg557
(lp3492
sg559
(lp3493
sg391
(lp3494
sg455
(lp3495
sg573
(lp3496
sg579
(lp3497
sg585
(lp3498
sg593
(lp3499
g3152
ag3158
ag3162
asg595
(lp3500
sg603
(lp3501
sg607
(lp3502
sg609
(lp3503
sg735
(lp3504
sg613
(lp3505
sg615
(lp3506
sg619
(lp3507
sg621
(lp3508
sg219
(lp3509
sg481
(lp3510
g3156
ag3158
asg643
(lp3511
g3154
asg651
(lp3512
sg653
(lp3513
g3164
asg657
(lp3514
sg663
(lp3515
sg665
(lp3516
sg667
(lp3517
g3160
asg263
(lp3518
sg671
(lp3519
sg675
(lp3520
sg11
(lp3521
sg679
(lp3522
sg683
(lp3523
sg689
(lp3524
sg699
(lp3525
sg705
(lp3526
sg709
(lp3527
sg713
(lp3528
sg721
(lp3529
sg723
(lp3530
sg727
(lp3531
sg729
(lp3532
g3156
asg733
(lp3533
sg611
(lp3534
sg737
(lp3535
sg741
(lp3536
sg743
(lp3537
sg745
(lp3538
sg747
(lp3539
sg749
(lp3540
stp3541
tp3542
Rp3543
g1146
((lp3544
(lp3545
g1149
ag4
aa(lp3546
g1151
ag3151
aa(lp3547
g1153
ag3166
aatp3548
Rp3549
ba.